(dp1
S'data'
p2
(lp3
(dp4
S'blocks'
p5
(lp6
(dp7
S'moment'
p8
Finf
sS'mass'
p9
Finf
sS'vert'
p10
(lp11
cpymunk.vec2d
Vec2d
p12
(F-499
F-9
tRp13
ag12
(F499
F-9
tRp14
ag12
(F499
F9
tRp15
ag12
(F-499
F9
tRp16
asS'fric'
p17
F1
sS'pos'
p18
g12
(F500
F5
tRp19
sS'elas'
p20
F0
sa(dp21
g8
F992.33333333333337
sg9
F1
sg10
(lp22
g12
(F-49
F-24
tRp23
ag12
(F49
F-24
tRp24
ag12
(F49
F24
tRp25
ag12
(F-49
F24
tRp26
asg17
F1
sg18
g12
(F500
F40
tRp27
sg20
F0
sa(dp28
g8
F992.33333333333337
sg9
F1
sg10
(lp29
g12
(F-24
F-49
tRp30
ag12
(F24
F-49
tRp31
ag12
(F24
F49
tRp32
ag12
(F-24
F49
tRp33
asg17
F1
sg18
g12
(F545.98416970732387
F115
tRp34
sg20
F0
sa(dp35
g8
F992.33333333333337
sg9
F1
sg10
(lp36
g12
(F-24
F-49
tRp37
ag12
(F24
F-49
tRp38
ag12
(F24
F49
tRp39
ag12
(F-24
F49
tRp40
asg17
F1
sg18
g12
(F528.06596301021546
F215
tRp41
sg20
F0
sa(dp42
g8
F992.33333333333337
sg9
F1
sg10
(lp43
g12
(F-24
F-49
tRp44
ag12
(F24
F-49
tRp45
ag12
(F24
F49
tRp46
ag12
(F-24
F49
tRp47
asg17
F1
sg18
g12
(F559.79905070995585
F315
tRp48
sg20
F0
sa(dp49
g8
F992.33333333333337
sg9
F1
sg10
(lp50
g12
(F-49
F-24
tRp51
ag12
(F49
F-24
tRp52
ag12
(F49
F24
tRp53
ag12
(F-49
F24
tRp54
asg17
F1
sg18
g12
(F571.76137235144108
F390
tRp55
sg20
F0
sasS'props'
p56
(dp57
S'gravity'
p58
g12
(F0
F0
tRp59
sS'iterations'
p60
I10
ssa(dp61
g5
(lp62
(dp63
g8
Finf
sg9
Finf
sg10
(lp64
g12
(F-499
F-9
tRp65
ag12
(F499
F-9
tRp66
ag12
(F499
F9
tRp67
ag12
(F-499
F9
tRp68
asg17
F1
sg18
g12
(F500
F5
tRp69
sg20
F0
sa(dp70
g8
F992.33333333333337
sg9
F1
sg10
(lp71
g12
(F-49
F-24
tRp72
ag12
(F49
F-24
tRp73
ag12
(F49
F24
tRp74
ag12
(F-49
F24
tRp75
asg17
F1
sg18
g12
(F500
F40
tRp76
sg20
F0
sa(dp77
g8
F992.33333333333337
sg9
F1
sg10
(lp78
g12
(F-49
F-24
tRp79
ag12
(F49
F-24
tRp80
ag12
(F49
F24
tRp81
ag12
(F-49
F24
tRp82
asg17
F1
sg18
g12
(F511.27003287549786
F90
tRp83
sg20
F0
sa(dp84
g8
F992.33333333333337
sg9
F1
sg10
(lp85
g12
(F-49
F-24
tRp86
ag12
(F49
F-24
tRp87
ag12
(F49
F24
tRp88
ag12
(F-49
F24
tRp89
asg17
F1
sg18
g12
(F517.06254403419109
F140
tRp90
sg20
F0
sa(dp91
g8
F992.33333333333337
sg9
F1
sg10
(lp92
g12
(F-24
F-49
tRp93
ag12
(F24
F-49
tRp94
ag12
(F24
F49
tRp95
ag12
(F-24
F49
tRp96
asg17
F1
sg18
g12
(F495.16668662345324
F215
tRp97
sg20
F0
sa(dp98
g8
F992.33333333333337
sg9
F1
sg10
(lp99
g12
(F-49
F-24
tRp100
ag12
(F49
F-24
tRp101
ag12
(F49
F24
tRp102
ag12
(F-49
F24
tRp103
asg17
F1
sg18
g12
(F537.85382515469814
F290
tRp104
sg20
F0
sasg56
(dp105
g58
g12
(F0
F0
tRp106
sg60
I10
ssa(dp107
g5
(lp108
(dp109
g8
Finf
sg9
Finf
sg10
(lp110
g12
(F-499
F-9
tRp111
ag12
(F499
F-9
tRp112
ag12
(F499
F9
tRp113
ag12
(F-499
F9
tRp114
asg17
F1
sg18
g12
(F500
F5
tRp115
sg20
F0
sa(dp116
g8
F992.33333333333337
sg9
F1
sg10
(lp117
g12
(F-49
F-24
tRp118
ag12
(F49
F-24
tRp119
ag12
(F49
F24
tRp120
ag12
(F-49
F24
tRp121
asg17
F1
sg18
g12
(F500
F40
tRp122
sg20
F0
sa(dp123
g8
F992.33333333333337
sg9
F1
sg10
(lp124
g12
(F-49
F-24
tRp125
ag12
(F49
F-24
tRp126
ag12
(F49
F24
tRp127
ag12
(F-49
F24
tRp128
asg17
F1
sg18
g12
(F536.30455136016201
F90
tRp129
sg20
F0
sa(dp130
g8
F992.33333333333337
sg9
F1
sg10
(lp131
g12
(F-49
F-24
tRp132
ag12
(F49
F-24
tRp133
ag12
(F49
F24
tRp134
ag12
(F-49
F24
tRp135
asg17
F1
sg18
g12
(F497.1980126258145
F140
tRp136
sg20
F0
sa(dp137
g8
F992.33333333333337
sg9
F1
sg10
(lp138
g12
(F-49
F-24
tRp139
ag12
(F49
F-24
tRp140
ag12
(F49
F24
tRp141
ag12
(F-49
F24
tRp142
asg17
F1
sg18
g12
(F518.04779147821978
F190
tRp143
sg20
F0
sa(dp144
g8
F992.33333333333337
sg9
F1
sg10
(lp145
g12
(F-24
F-49
tRp146
ag12
(F24
F-49
tRp147
ag12
(F24
F49
tRp148
ag12
(F-24
F49
tRp149
asg17
F1
sg18
g12
(F489.80516477109342
F265
tRp150
sg20
F0
sasg56
(dp151
g58
g12
(F0
F0
tRp152
sg60
I10
ssa(dp153
g5
(lp154
(dp155
g8
Finf
sg9
Finf
sg10
(lp156
g12
(F-499
F-9
tRp157
ag12
(F499
F-9
tRp158
ag12
(F499
F9
tRp159
ag12
(F-499
F9
tRp160
asg17
F1
sg18
g12
(F500
F5
tRp161
sg20
F0
sa(dp162
g8
F992.33333333333337
sg9
F1
sg10
(lp163
g12
(F-49
F-24
tRp164
ag12
(F49
F-24
tRp165
ag12
(F49
F24
tRp166
ag12
(F-49
F24
tRp167
asg17
F1
sg18
g12
(F500
F40
tRp168
sg20
F0
sa(dp169
g8
F992.33333333333337
sg9
F1
sg10
(lp170
g12
(F-49
F-24
tRp171
ag12
(F49
F-24
tRp172
ag12
(F49
F24
tRp173
ag12
(F-49
F24
tRp174
asg17
F1
sg18
g12
(F448.09560613558892
F90
tRp175
sg20
F0
sa(dp176
g8
F992.33333333333337
sg9
F1
sg10
(lp177
g12
(F-49
F-24
tRp178
ag12
(F49
F-24
tRp179
ag12
(F49
F24
tRp180
ag12
(F-49
F24
tRp181
asg17
F1
sg18
g12
(F469.50960934913491
F140
tRp182
sg20
F0
sa(dp183
g8
F992.33333333333337
sg9
F1
sg10
(lp184
g12
(F-49
F-24
tRp185
ag12
(F49
F-24
tRp186
ag12
(F49
F24
tRp187
ag12
(F-49
F24
tRp188
asg17
F1
sg18
g12
(F472.92348219119168
F190
tRp189
sg20
F0
sa(dp190
g8
F992.33333333333337
sg9
F1
sg10
(lp191
g12
(F-49
F-24
tRp192
ag12
(F49
F-24
tRp193
ag12
(F49
F24
tRp194
ag12
(F-49
F24
tRp195
asg17
F1
sg18
g12
(F439.39942883002391
F240
tRp196
sg20
F0
sasg56
(dp197
g58
g12
(F0
F0
tRp198
sg60
I10
ssa(dp199
g5
(lp200
(dp201
g8
Finf
sg9
Finf
sg10
(lp202
g12
(F-499
F-9
tRp203
ag12
(F499
F-9
tRp204
ag12
(F499
F9
tRp205
ag12
(F-499
F9
tRp206
asg17
F1
sg18
g12
(F500
F5
tRp207
sg20
F0
sa(dp208
g8
F992.33333333333337
sg9
F1
sg10
(lp209
g12
(F-49
F-24
tRp210
ag12
(F49
F-24
tRp211
ag12
(F49
F24
tRp212
ag12
(F-49
F24
tRp213
asg17
F1
sg18
g12
(F500
F40
tRp214
sg20
F0
sa(dp215
g8
F992.33333333333337
sg9
F1
sg10
(lp216
g12
(F-24
F-49
tRp217
ag12
(F24
F-49
tRp218
ag12
(F24
F49
tRp219
ag12
(F-24
F49
tRp220
asg17
F1
sg18
g12
(F506.3711951868338
F115
tRp221
sg20
F0
sa(dp222
g8
F992.33333333333337
sg9
F1
sg10
(lp223
g12
(F-24
F-49
tRp224
ag12
(F24
F-49
tRp225
ag12
(F24
F49
tRp226
ag12
(F-24
F49
tRp227
asg17
F1
sg18
g12
(F537.0224261800488
F215
tRp228
sg20
F0
sa(dp229
g8
F992.33333333333337
sg9
F1
sg10
(lp230
g12
(F-49
F-24
tRp231
ag12
(F49
F-24
tRp232
ag12
(F49
F24
tRp233
ag12
(F-49
F24
tRp234
asg17
F1
sg18
g12
(F521.46091832852096
F290
tRp235
sg20
F0
sa(dp236
g8
F992.33333333333337
sg9
F1
sg10
(lp237
g12
(F-49
F-24
tRp238
ag12
(F49
F-24
tRp239
ag12
(F49
F24
tRp240
ag12
(F-49
F24
tRp241
asg17
F1
sg18
g12
(F538.07458522343256
F340
tRp242
sg20
F0
sasg56
(dp243
g58
g12
(F0
F0
tRp244
sg60
I10
ssasS'label'
p245
(lp246
ccollections
OrderedDict
p247
((lp248
(lp249
(I500
I40
tp250
aI01
aa(lp251
(I545
I115
tp252
aI00
aa(lp253
(I528
I215
tp254
aI00
aa(lp255
(I559
I315
tp256
aI00
aa(lp257
(I571
I390
tp258
aI00
aatRp259
ag247
((lp260
(lp261
(I500
I40
tp262
aI01
aa(lp263
(I511
I90
tp264
aI01
aa(lp265
(I517
I140
tp266
aI01
aa(lp267
(I495
I215
tp268
aI01
aa(lp269
(I537
I290
tp270
aI00
aatRp271
ag247
((lp272
(lp273
(I500
I40
tp274
aI01
aa(lp275
(I536
I90
tp276
aI01
aa(lp277
(I497
I140
tp278
aI01
aa(lp279
(I518
I190
tp280
aI01
aa(lp281
(I489
I265
tp282
aI01
aatRp283
ag247
((lp284
(lp285
(I500
I40
tp286
aI01
aa(lp287
(I448
I90
tp288
aI01
aa(lp289
(I469
I140
tp290
aI01
aa(lp291
(I472
I190
tp292
aI01
aa(lp293
(I439
I240
tp294
aI01
aatRp295
ag247
((lp296
(lp297
(I500
I40
tp298
aI01
aa(lp299
(I506
I115
tp300
aI01
aa(lp301
(I537
I215
tp302
aI00
aa(lp303
(I521
I290
tp304
aI00
aa(lp305
(I538
I340
tp306
aI00
aatRp307
as.