(dp1
S'data'
p2
(lp3
(dp4
S'blocks'
p5
(lp6
(dp7
S'moment'
p8
Finf
sS'mass'
p9
Finf
sS'vert'
p10
(lp11
cpymunk.vec2d
Vec2d
p12
(F-499
F-9
tRp13
ag12
(F499
F-9
tRp14
ag12
(F499
F9
tRp15
ag12
(F-499
F9
tRp16
asS'fric'
p17
F1000
sS'pos'
p18
g12
(F500
F5
tRp19
sS'elas'
p20
F0
sa(dp21
g8
F1440.6666666666667
sg9
F1
sg10
(lp22
g12
(F-59
F-29
tRp23
ag12
(F59
F-29
tRp24
ag12
(F59
F29
tRp25
ag12
(F-59
F29
tRp26
asg17
F1000
sg18
g12
(F500
F45
tRp27
sg20
F0
sa(dp28
g8
F1440.6666666666667
sg9
F1
sg10
(lp29
g12
(F-59
F-29
tRp30
ag12
(F59
F-29
tRp31
ag12
(F59
F29
tRp32
ag12
(F-59
F29
tRp33
asg17
F1000
sg18
g12
(F475.0233756352103
F105
tRp34
sg20
F0
sa(dp35
g8
F1440.6666666666667
sg9
F1
sg10
(lp36
g12
(F-59
F-29
tRp37
ag12
(F59
F-29
tRp38
ag12
(F59
F29
tRp39
ag12
(F-59
F29
tRp40
asg17
F1000
sg18
g12
(F454.74648581584358
F165
tRp41
sg20
F0
sa(dp42
g8
F1440.6666666666667
sg9
F1
sg10
(lp43
g12
(F-29
F-59
tRp44
ag12
(F29
F-59
tRp45
ag12
(F29
F59
tRp46
ag12
(F-29
F59
tRp47
asg17
F1000
sg18
g12
(F448.7288415468235
F255
tRp48
sg20
F0
sa(dp49
g8
F1440.6666666666667
sg9
F1
sg10
(lp50
g12
(F-29
F-59
tRp51
ag12
(F29
F-59
tRp52
ag12
(F29
F59
tRp53
ag12
(F-29
F59
tRp54
asg17
F1000
sg18
g12
(F458.14383277645072
F375
tRp55
sg20
F0
sa(dp56
g8
F1440.6666666666667
sg9
F1
sg10
(lp57
g12
(F-59
F-29
tRp58
ag12
(F59
F-29
tRp59
ag12
(F59
F29
tRp60
ag12
(F-59
F29
tRp61
asg17
F1000
sg18
g12
(F420.58312610629645
F465
tRp62
sg20
F0
sa(dp63
g8
F1440.6666666666667
sg9
F1
sg10
(lp64
g12
(F-29
F-59
tRp65
ag12
(F29
F-59
tRp66
ag12
(F29
F59
tRp67
ag12
(F-29
F59
tRp68
asg17
F1000
sg18
g12
(F427.62764979257793
F555
tRp69
sg20
F0
sa(dp70
g8
F1440.6666666666667
sg9
F1
sg10
(lp71
g12
(F-29
F-59
tRp72
ag12
(F29
F-59
tRp73
ag12
(F29
F59
tRp74
ag12
(F-29
F59
tRp75
asg17
F1000
sg18
g12
(F420.95710520830369
F675
tRp76
sg20
F0
sa(dp77
g8
F1440.6666666666667
sg9
F1
sg10
(lp78
g12
(F-59
F-29
tRp79
ag12
(F59
F-29
tRp80
ag12
(F59
F29
tRp81
ag12
(F-59
F29
tRp82
asg17
F1000
sg18
g12
(F419.90512708141091
F765
tRp83
sg20
F0
sa(dp84
g8
F1440.6666666666667
sg9
F1
sg10
(lp85
g12
(F-29
F-59
tRp86
ag12
(F29
F-59
tRp87
ag12
(F29
F59
tRp88
ag12
(F-29
F59
tRp89
asg17
F1000
sg18
g12
(F412.19931990643101
F855
tRp90
sg20
F0
sasS'props'
p91
(dp92
S'gravity'
p93
g12
(F0
F0
tRp94
sS'iterations'
p95
I10
ssa(dp96
g5
(lp97
(dp98
g8
Finf
sg9
Finf
sg10
(lp99
g12
(F-499
F-9
tRp100
ag12
(F499
F-9
tRp101
ag12
(F499
F9
tRp102
ag12
(F-499
F9
tRp103
asg17
F1000
sg18
g12
(F500
F5
tRp104
sg20
F0
sa(dp105
g8
F1440.6666666666667
sg9
F1
sg10
(lp106
g12
(F-59
F-29
tRp107
ag12
(F59
F-29
tRp108
ag12
(F59
F29
tRp109
ag12
(F-59
F29
tRp110
asg17
F1000
sg18
g12
(F500
F45
tRp111
sg20
F0
sa(dp112
g8
F1440.6666666666667
sg9
F1
sg10
(lp113
g12
(F-29
F-59
tRp114
ag12
(F29
F-59
tRp115
ag12
(F29
F59
tRp116
ag12
(F-29
F59
tRp117
asg17
F1000
sg18
g12
(F488.69743151364457
F135
tRp118
sg20
F0
sa(dp119
g8
F1440.6666666666667
sg9
F1
sg10
(lp120
g12
(F-29
F-59
tRp121
ag12
(F29
F-59
tRp122
ag12
(F29
F59
tRp123
ag12
(F-29
F59
tRp124
asg17
F1000
sg18
g12
(F472.07552100273756
F255
tRp125
sg20
F0
sa(dp126
g8
F1440.6666666666667
sg9
F1
sg10
(lp127
g12
(F-29
F-59
tRp128
ag12
(F29
F-59
tRp129
ag12
(F29
F59
tRp130
ag12
(F-29
F59
tRp131
asg17
F1000
sg18
g12
(F454.44687885343097
F375
tRp132
sg20
F0
sa(dp133
g8
F1440.6666666666667
sg9
F1
sg10
(lp134
g12
(F-29
F-59
tRp135
ag12
(F29
F-59
tRp136
ag12
(F29
F59
tRp137
ag12
(F-29
F59
tRp138
asg17
F1000
sg18
g12
(F444.87368224606763
F495
tRp139
sg20
F0
sa(dp140
g8
F1440.6666666666667
sg9
F1
sg10
(lp141
g12
(F-59
F-29
tRp142
ag12
(F59
F-29
tRp143
ag12
(F59
F29
tRp144
ag12
(F-59
F29
tRp145
asg17
F1000
sg18
g12
(F470.58019166662223
F585
tRp146
sg20
F0
sa(dp147
g8
F1440.6666666666667
sg9
F1
sg10
(lp148
g12
(F-29
F-59
tRp149
ag12
(F29
F-59
tRp150
ag12
(F29
F59
tRp151
ag12
(F-29
F59
tRp152
asg17
F1000
sg18
g12
(F487.93589921143416
F675
tRp153
sg20
F0
sa(dp154
g8
F1440.6666666666667
sg9
F1
sg10
(lp155
g12
(F-59
F-29
tRp156
ag12
(F59
F-29
tRp157
ag12
(F59
F29
tRp158
ag12
(F-59
F29
tRp159
asg17
F1000
sg18
g12
(F468.54018852595425
F765
tRp160
sg20
F0
sa(dp161
g8
F1440.6666666666667
sg9
F1
sg10
(lp162
g12
(F-59
F-29
tRp163
ag12
(F59
F-29
tRp164
ag12
(F59
F29
tRp165
ag12
(F-59
F29
tRp166
asg17
F1000
sg18
g12
(F446.82138966362425
F825
tRp167
sg20
F0
sa(dp168
g8
F1440.6666666666667
sg9
F1
sg10
(lp169
g12
(F-59
F-29
tRp170
ag12
(F59
F-29
tRp171
ag12
(F59
F29
tRp172
ag12
(F-59
F29
tRp173
asg17
F1000
sg18
g12
(F385.30690426153922
F885
tRp174
sg20
F0
sasg91
(dp175
g93
g12
(F0
F0
tRp176
sg95
I10
ssa(dp177
g5
(lp178
(dp179
g8
Finf
sg9
Finf
sg10
(lp180
g12
(F-499
F-9
tRp181
ag12
(F499
F-9
tRp182
ag12
(F499
F9
tRp183
ag12
(F-499
F9
tRp184
asg17
F1000
sg18
g12
(F500
F5
tRp185
sg20
F0
sa(dp186
g8
F1440.6666666666667
sg9
F1
sg10
(lp187
g12
(F-59
F-29
tRp188
ag12
(F59
F-29
tRp189
ag12
(F59
F29
tRp190
ag12
(F-59
F29
tRp191
asg17
F1000
sg18
g12
(F500
F45
tRp192
sg20
F0
sa(dp193
g8
F1440.6666666666667
sg9
F1
sg10
(lp194
g12
(F-29
F-59
tRp195
ag12
(F29
F-59
tRp196
ag12
(F29
F59
tRp197
ag12
(F-29
F59
tRp198
asg17
F1000
sg18
g12
(F493.7495703425667
F135
tRp199
sg20
F0
sa(dp200
g8
F1440.6666666666667
sg9
F1
sg10
(lp201
g12
(F-59
F-29
tRp202
ag12
(F59
F-29
tRp203
ag12
(F59
F29
tRp204
ag12
(F-59
F29
tRp205
asg17
F1000
sg18
g12
(F499.46786621854346
F225
tRp206
sg20
F0
sa(dp207
g8
F1440.6666666666667
sg9
F1
sg10
(lp208
g12
(F-59
F-29
tRp209
ag12
(F59
F-29
tRp210
ag12
(F59
F29
tRp211
ag12
(F-59
F29
tRp212
asg17
F1000
sg18
g12
(F543.52511698791011
F285
tRp213
sg20
F0
sa(dp214
g8
F1440.6666666666667
sg9
F1
sg10
(lp215
g12
(F-59
F-29
tRp216
ag12
(F59
F-29
tRp217
ag12
(F59
F29
tRp218
ag12
(F-59
F29
tRp219
asg17
F1000
sg18
g12
(F547.37860096256384
F345
tRp220
sg20
F0
sa(dp221
g8
F1440.6666666666667
sg9
F1
sg10
(lp222
g12
(F-59
F-29
tRp223
ag12
(F59
F-29
tRp224
ag12
(F59
F29
tRp225
ag12
(F-59
F29
tRp226
asg17
F1000
sg18
g12
(F518.00648772014972
F405
tRp227
sg20
F0
sa(dp228
g8
F1440.6666666666667
sg9
F1
sg10
(lp229
g12
(F-59
F-29
tRp230
ag12
(F59
F-29
tRp231
ag12
(F59
F29
tRp232
ag12
(F-59
F29
tRp233
asg17
F1000
sg18
g12
(F509.36796371421462
F465
tRp234
sg20
F0
sa(dp235
g8
F1440.6666666666667
sg9
F1
sg10
(lp236
g12
(F-59
F-29
tRp237
ag12
(F59
F-29
tRp238
ag12
(F59
F29
tRp239
ag12
(F-59
F29
tRp240
asg17
F1000
sg18
g12
(F554.5581593007737
F525
tRp241
sg20
F0
sa(dp242
g8
F1440.6666666666667
sg9
F1
sg10
(lp243
g12
(F-59
F-29
tRp244
ag12
(F59
F-29
tRp245
ag12
(F59
F29
tRp246
ag12
(F-59
F29
tRp247
asg17
F1000
sg18
g12
(F497.84491950218296
F585
tRp248
sg20
F0
sa(dp249
g8
F1440.6666666666667
sg9
F1
sg10
(lp250
g12
(F-59
F-29
tRp251
ag12
(F59
F-29
tRp252
ag12
(F59
F29
tRp253
ag12
(F-59
F29
tRp254
asg17
F1000
sg18
g12
(F545.34006915572672
F645
tRp255
sg20
F0
sasg91
(dp256
g93
g12
(F0
F0
tRp257
sg95
I10
ssa(dp258
g5
(lp259
(dp260
g8
Finf
sg9
Finf
sg10
(lp261
g12
(F-499
F-9
tRp262
ag12
(F499
F-9
tRp263
ag12
(F499
F9
tRp264
ag12
(F-499
F9
tRp265
asg17
F1000
sg18
g12
(F500
F5
tRp266
sg20
F0
sa(dp267
g8
F1440.6666666666667
sg9
F1
sg10
(lp268
g12
(F-59
F-29
tRp269
ag12
(F59
F-29
tRp270
ag12
(F59
F29
tRp271
ag12
(F-59
F29
tRp272
asg17
F1000
sg18
g12
(F500
F45
tRp273
sg20
F0
sa(dp274
g8
F1440.6666666666667
sg9
F1
sg10
(lp275
g12
(F-59
F-29
tRp276
ag12
(F59
F-29
tRp277
ag12
(F59
F29
tRp278
ag12
(F-59
F29
tRp279
asg17
F1000
sg18
g12
(F477.46537840439174
F105
tRp280
sg20
F0
sa(dp281
g8
F1440.6666666666667
sg9
F1
sg10
(lp282
g12
(F-29
F-59
tRp283
ag12
(F29
F-59
tRp284
ag12
(F29
F59
tRp285
ag12
(F-29
F59
tRp286
asg17
F1000
sg18
g12
(F507.48313172459655
F195
tRp287
sg20
F0
sa(dp288
g8
F1440.6666666666667
sg9
F1
sg10
(lp289
g12
(F-59
F-29
tRp290
ag12
(F59
F-29
tRp291
ag12
(F59
F29
tRp292
ag12
(F-59
F29
tRp293
asg17
F1000
sg18
g12
(F567.45170717750989
F285
tRp294
sg20
F0
sa(dp295
g8
F1440.6666666666667
sg9
F1
sg10
(lp296
g12
(F-29
F-59
tRp297
ag12
(F29
F-59
tRp298
ag12
(F29
F59
tRp299
ag12
(F-29
F59
tRp300
asg17
F1000
sg18
g12
(F563.10260649088241
F375
tRp301
sg20
F0
sa(dp302
g8
F1440.6666666666667
sg9
F1
sg10
(lp303
g12
(F-29
F-59
tRp304
ag12
(F29
F-59
tRp305
ag12
(F29
F59
tRp306
ag12
(F-29
F59
tRp307
asg17
F1000
sg18
g12
(F560.83791661889393
F495
tRp308
sg20
F0
sa(dp309
g8
F1440.6666666666667
sg9
F1
sg10
(lp310
g12
(F-29
F-59
tRp311
ag12
(F29
F-59
tRp312
ag12
(F29
F59
tRp313
ag12
(F-29
F59
tRp314
asg17
F1000
sg18
g12
(F551.91106182386989
F615
tRp315
sg20
F0
sa(dp316
g8
F1440.6666666666667
sg9
F1
sg10
(lp317
g12
(F-59
F-29
tRp318
ag12
(F59
F-29
tRp319
ag12
(F59
F29
tRp320
ag12
(F-59
F29
tRp321
asg17
F1000
sg18
g12
(F563.83305315828488
F705
tRp322
sg20
F0
sa(dp323
g8
F1440.6666666666667
sg9
F1
sg10
(lp324
g12
(F-29
F-59
tRp325
ag12
(F29
F-59
tRp326
ag12
(F29
F59
tRp327
ag12
(F-29
F59
tRp328
asg17
F1000
sg18
g12
(F553.81180443814378
F795
tRp329
sg20
F0
sa(dp330
g8
F1440.6666666666667
sg9
F1
sg10
(lp331
g12
(F-29
F-59
tRp332
ag12
(F29
F-59
tRp333
ag12
(F29
F59
tRp334
ag12
(F-29
F59
tRp335
asg17
F1000
sg18
g12
(F553.7865216794811
F915
tRp336
sg20
F0
sasg91
(dp337
g93
g12
(F0
F0
tRp338
sg95
I10
ssa(dp339
g5
(lp340
(dp341
g8
Finf
sg9
Finf
sg10
(lp342
g12
(F-499
F-9
tRp343
ag12
(F499
F-9
tRp344
ag12
(F499
F9
tRp345
ag12
(F-499
F9
tRp346
asg17
F1000
sg18
g12
(F500
F5
tRp347
sg20
F0
sa(dp348
g8
F1440.6666666666667
sg9
F1
sg10
(lp349
g12
(F-59
F-29
tRp350
ag12
(F59
F-29
tRp351
ag12
(F59
F29
tRp352
ag12
(F-59
F29
tRp353
asg17
F1000
sg18
g12
(F500
F45
tRp354
sg20
F0
sa(dp355
g8
F1440.6666666666667
sg9
F1
sg10
(lp356
g12
(F-29
F-59
tRp357
ag12
(F29
F-59
tRp358
ag12
(F29
F59
tRp359
ag12
(F-29
F59
tRp360
asg17
F1000
sg18
g12
(F500.16955052767184
F135
tRp361
sg20
F0
sa(dp362
g8
F1440.6666666666667
sg9
F1
sg10
(lp363
g12
(F-29
F-59
tRp364
ag12
(F29
F-59
tRp365
ag12
(F29
F59
tRp366
ag12
(F-29
F59
tRp367
asg17
F1000
sg18
g12
(F469.94125842847967
F255
tRp368
sg20
F0
sa(dp369
g8
F1440.6666666666667
sg9
F1
sg10
(lp370
g12
(F-59
F-29
tRp371
ag12
(F59
F-29
tRp372
ag12
(F59
F29
tRp373
ag12
(F-59
F29
tRp374
asg17
F1000
sg18
g12
(F483.16822411651418
F345
tRp375
sg20
F0
sa(dp376
g8
F1440.6666666666667
sg9
F1
sg10
(lp377
g12
(F-29
F-59
tRp378
ag12
(F29
F-59
tRp379
ag12
(F29
F59
tRp380
ag12
(F-29
F59
tRp381
asg17
F1000
sg18
g12
(F497.90630150260432
F435
tRp382
sg20
F0
sa(dp383
g8
F1440.6666666666667
sg9
F1
sg10
(lp384
g12
(F-29
F-59
tRp385
ag12
(F29
F-59
tRp386
ag12
(F29
F59
tRp387
ag12
(F-29
F59
tRp388
asg17
F1000
sg18
g12
(F491.4718896858991
F555
tRp389
sg20
F0
sa(dp390
g8
F1440.6666666666667
sg9
F1
sg10
(lp391
g12
(F-59
F-29
tRp392
ag12
(F59
F-29
tRp393
ag12
(F59
F29
tRp394
ag12
(F-59
F29
tRp395
asg17
F1000
sg18
g12
(F526.49215049318741
F645
tRp396
sg20
F0
sa(dp397
g8
F1440.6666666666667
sg9
F1
sg10
(lp398
g12
(F-29
F-59
tRp399
ag12
(F29
F-59
tRp400
ag12
(F29
F59
tRp401
ag12
(F-29
F59
tRp402
asg17
F1000
sg18
g12
(F550.19565769552264
F735
tRp403
sg20
F0
sa(dp404
g8
F1440.6666666666667
sg9
F1
sg10
(lp405
g12
(F-29
F-59
tRp406
ag12
(F29
F-59
tRp407
ag12
(F29
F59
tRp408
ag12
(F-29
F59
tRp409
asg17
F1000
sg18
g12
(F521.11623999609571
F855
tRp410
sg20
F0
sa(dp411
g8
F1440.6666666666667
sg9
F1
sg10
(lp412
g12
(F-59
F-29
tRp413
ag12
(F59
F-29
tRp414
ag12
(F59
F29
tRp415
ag12
(F-59
F29
tRp416
asg17
F1000
sg18
g12
(F527.50587127451672
F945
tRp417
sg20
F0
sasg91
(dp418
g93
g12
(F0
F0
tRp419
sg95
I10
ssasS'label'
p420
(lp421
ccollections
OrderedDict
p422
((lp423
(lp424
(I500
I45
tp425
aI01
aa(lp426
(I475
I105
tp427
aI00
aa(lp428
(I454
I165
tp429
aI00
aa(lp430
(I448
I255
tp431
aI00
aa(lp432
(I458
I375
tp433
aI00
aa(lp434
(I420
I465
tp435
aI00
aa(lp436
(I427
I555
tp437
aI00
aa(lp438
(I420
I675
tp439
aI00
aa(lp440
(I419
I765
tp441
aI00
aa(lp442
(I412
I855
tp443
aI00
aatRp444
ag422
((lp445
(lp446
(I500
I45
tp447
aI01
aa(lp448
(I488
I135
tp449
aI00
aa(lp450
(I472
I255
tp451
aI00
aa(lp452
(I454
I375
tp453
aI00
aa(lp454
(I444
I495
tp455
aI00
aa(lp456
(I470
I585
tp457
aI00
aa(lp458
(I487
I675
tp459
aI00
aa(lp460
(I468
I765
tp461
aI00
aa(lp462
(I446
I825
tp463
aI00
aa(lp464
(I385
I885
tp465
aI00
aatRp466
ag422
((lp467
(lp468
(I500
I45
tp469
aI01
aa(lp470
(I493
I135
tp471
aI01
aa(lp472
(I499
I225
tp473
aI00
aa(lp474
(I543
I285
tp475
aI00
aa(lp476
(I547
I345
tp477
aI00
aa(lp478
(I518
I405
tp479
aI00
aa(lp480
(I509
I465
tp481
aI00
aa(lp482
(I554
I525
tp483
aI00
aa(lp484
(I497
I585
tp485
aI00
aa(lp486
(I545
I645
tp487
aI00
aatRp488
ag422
((lp489
(lp490
(I500
I45
tp491
aI01
aa(lp492
(I477
I105
tp493
aI00
aa(lp494
(I507
I195
tp495
aI00
aa(lp496
(I567
I285
tp497
aI00
aa(lp498
(I563
I375
tp499
aI00
aa(lp500
(I560
I495
tp501
aI00
aa(lp502
(I551
I615
tp503
aI00
aa(lp504
(I563
I705
tp505
aI00
aa(lp506
(I553
I795
tp507
aI00
aa(lp508
(I553
I915
tp509
aI00
aatRp510
ag422
((lp511
(lp512
(I500
I45
tp513
aI01
aa(lp514
(I500
I135
tp515
aI01
aa(lp516
(I469
I255
tp517
aI00
aa(lp518
(I483
I345
tp519
aI00
aa(lp520
(I497
I435
tp521
aI00
aa(lp522
(I491
I555
tp523
aI00
aa(lp524
(I526
I645
tp525
aI00
aa(lp526
(I550
I735
tp527
aI00
aa(lp528
(I521
I855
tp529
aI00
aa(lp530
(I527
I945
tp531
aI00
aatRp532
as.