(dp1
S'data'
p2
(lp3
(dp4
S'blocks'
p5
(lp6
(dp7
S'moment'
p8
Finf
sS'mass'
p9
Finf
sS'vert'
p10
(lp11
cpymunk.vec2d
Vec2d
p12
(F-499
F-9
tRp13
ag12
(F499
F-9
tRp14
ag12
(F499
F9
tRp15
ag12
(F-499
F9
tRp16
asS'fric'
p17
F1000
sS'pos'
p18
g12
(F500
F5
tRp19
sS'elas'
p20
F0
sa(dp21
g8
F992.33333333333337
sg9
F1
sg10
(lp22
g12
(F-49
F-24
tRp23
ag12
(F49
F-24
tRp24
ag12
(F49
F24
tRp25
ag12
(F-49
F24
tRp26
asg17
F1000
sg18
g12
(F500
F40
tRp27
sg20
F0
sa(dp28
g8
F992.33333333333337
sg9
F1
sg10
(lp29
g12
(F-24
F-49
tRp30
ag12
(F24
F-49
tRp31
ag12
(F24
F49
tRp32
ag12
(F-24
F49
tRp33
asg17
F1000
sg18
g12
(F493.8485452112788
F115
tRp34
sg20
F0
sa(dp35
g8
F992.33333333333337
sg9
F1
sg10
(lp36
g12
(F-49
F-24
tRp37
ag12
(F49
F-24
tRp38
ag12
(F49
F24
tRp39
ag12
(F-49
F24
tRp40
asg17
F1000
sg18
g12
(F476.37655104585588
F190
tRp41
sg20
F0
sa(dp42
g8
F992.33333333333337
sg9
F1
sg10
(lp43
g12
(F-24
F-49
tRp44
ag12
(F24
F-49
tRp45
ag12
(F24
F49
tRp46
ag12
(F-24
F49
tRp47
asg17
F1000
sg18
g12
(F512.8006795573034
F265
tRp48
sg20
F0
sa(dp49
g8
F992.33333333333337
sg9
F1
sg10
(lp50
g12
(F-24
F-49
tRp51
ag12
(F24
F-49
tRp52
ag12
(F24
F49
tRp53
ag12
(F-24
F49
tRp54
asg17
F1000
sg18
g12
(F510.13564107598387
F365
tRp55
sg20
F0
sa(dp56
g8
F992.33333333333337
sg9
F1
sg10
(lp57
g12
(F-49
F-24
tRp58
ag12
(F49
F-24
tRp59
ag12
(F49
F24
tRp60
ag12
(F-49
F24
tRp61
asg17
F1000
sg18
g12
(F549.3889533093884
F440
tRp62
sg20
F0
sa(dp63
g8
F992.33333333333337
sg9
F1
sg10
(lp64
g12
(F-24
F-49
tRp65
ag12
(F24
F-49
tRp66
ag12
(F24
F49
tRp67
ag12
(F-24
F49
tRp68
asg17
F1000
sg18
g12
(F559.83104656283501
F515
tRp69
sg20
F0
sasS'props'
p70
(dp71
S'gravity'
p72
g12
(F0
F0
tRp73
sS'iterations'
p74
I10
ssa(dp75
g5
(lp76
(dp77
g8
Finf
sg9
Finf
sg10
(lp78
g12
(F-499
F-9
tRp79
ag12
(F499
F-9
tRp80
ag12
(F499
F9
tRp81
ag12
(F-499
F9
tRp82
asg17
F1000
sg18
g12
(F500
F5
tRp83
sg20
F0
sa(dp84
g8
F992.33333333333337
sg9
F1
sg10
(lp85
g12
(F-49
F-24
tRp86
ag12
(F49
F-24
tRp87
ag12
(F49
F24
tRp88
ag12
(F-49
F24
tRp89
asg17
F1000
sg18
g12
(F500
F40
tRp90
sg20
F0
sa(dp91
g8
F992.33333333333337
sg9
F1
sg10
(lp92
g12
(F-24
F-49
tRp93
ag12
(F24
F-49
tRp94
ag12
(F24
F49
tRp95
ag12
(F-24
F49
tRp96
asg17
F1000
sg18
g12
(F561.61947626142933
F115
tRp97
sg20
F0
sa(dp98
g8
F992.33333333333337
sg9
F1
sg10
(lp99
g12
(F-24
F-49
tRp100
ag12
(F24
F-49
tRp101
ag12
(F24
F49
tRp102
ag12
(F-24
F49
tRp103
asg17
F1000
sg18
g12
(F573.60215465257954
F215
tRp104
sg20
F0
sa(dp105
g8
F992.33333333333337
sg9
F1
sg10
(lp106
g12
(F-24
F-49
tRp107
ag12
(F24
F-49
tRp108
ag12
(F24
F49
tRp109
ag12
(F-24
F49
tRp110
asg17
F1000
sg18
g12
(F585.60549054053445
F315
tRp111
sg20
F0
sa(dp112
g8
F992.33333333333337
sg9
F1
sg10
(lp113
g12
(F-49
F-24
tRp114
ag12
(F49
F-24
tRp115
ag12
(F49
F24
tRp116
ag12
(F-49
F24
tRp117
asg17
F1000
sg18
g12
(F579.75589585370949
F390
tRp118
sg20
F0
sa(dp119
g8
F992.33333333333337
sg9
F1
sg10
(lp120
g12
(F-24
F-49
tRp121
ag12
(F24
F-49
tRp122
ag12
(F24
F49
tRp123
ag12
(F-24
F49
tRp124
asg17
F1000
sg18
g12
(F563.73141835183185
F465
tRp125
sg20
F0
sa(dp126
g8
F992.33333333333337
sg9
F1
sg10
(lp127
g12
(F-24
F-49
tRp128
ag12
(F24
F-49
tRp129
ag12
(F24
F49
tRp130
ag12
(F-24
F49
tRp131
asg17
F1000
sg18
g12
(F550.64255316235688
F565
tRp132
sg20
F0
sasg70
(dp133
g72
g12
(F0
F0
tRp134
sg74
I10
ssa(dp135
g5
(lp136
(dp137
g8
Finf
sg9
Finf
sg10
(lp138
g12
(F-499
F-9
tRp139
ag12
(F499
F-9
tRp140
ag12
(F499
F9
tRp141
ag12
(F-499
F9
tRp142
asg17
F1000
sg18
g12
(F500
F5
tRp143
sg20
F0
sa(dp144
g8
F992.33333333333337
sg9
F1
sg10
(lp145
g12
(F-49
F-24
tRp146
ag12
(F49
F-24
tRp147
ag12
(F49
F24
tRp148
ag12
(F-49
F24
tRp149
asg17
F1000
sg18
g12
(F500
F40
tRp150
sg20
F0
sa(dp151
g8
F992.33333333333337
sg9
F1
sg10
(lp152
g12
(F-24
F-49
tRp153
ag12
(F24
F-49
tRp154
ag12
(F24
F49
tRp155
ag12
(F-24
F49
tRp156
asg17
F1000
sg18
g12
(F465.54734804864495
F115
tRp157
sg20
F0
sa(dp158
g8
F992.33333333333337
sg9
F1
sg10
(lp159
g12
(F-24
F-49
tRp160
ag12
(F24
F-49
tRp161
ag12
(F24
F49
tRp162
ag12
(F-24
F49
tRp163
asg17
F1000
sg18
g12
(F469.15190963630516
F215
tRp164
sg20
F0
sa(dp165
g8
F992.33333333333337
sg9
F1
sg10
(lp166
g12
(F-24
F-49
tRp167
ag12
(F24
F-49
tRp168
ag12
(F24
F49
tRp169
ag12
(F-24
F49
tRp170
asg17
F1000
sg18
g12
(F433.81005347388918
F315
tRp171
sg20
F0
sa(dp172
g8
F992.33333333333337
sg9
F1
sg10
(lp173
g12
(F-49
F-24
tRp174
ag12
(F49
F-24
tRp175
ag12
(F49
F24
tRp176
ag12
(F-49
F24
tRp177
asg17
F1000
sg18
g12
(F443.18593207600259
F390
tRp178
sg20
F0
sa(dp179
g8
F992.33333333333337
sg9
F1
sg10
(lp180
g12
(F-24
F-49
tRp181
ag12
(F24
F-49
tRp182
ag12
(F24
F49
tRp183
ag12
(F-24
F49
tRp184
asg17
F1000
sg18
g12
(F484.80864793519243
F465
tRp185
sg20
F0
sa(dp186
g8
F992.33333333333337
sg9
F1
sg10
(lp187
g12
(F-24
F-49
tRp188
ag12
(F24
F-49
tRp189
ag12
(F24
F49
tRp190
ag12
(F-24
F49
tRp191
asg17
F1000
sg18
g12
(F491.97632220224381
F565
tRp192
sg20
F0
sasg70
(dp193
g72
g12
(F0
F0
tRp194
sg74
I10
ssa(dp195
g5
(lp196
(dp197
g8
Finf
sg9
Finf
sg10
(lp198
g12
(F-499
F-9
tRp199
ag12
(F499
F-9
tRp200
ag12
(F499
F9
tRp201
ag12
(F-499
F9
tRp202
asg17
F1000
sg18
g12
(F500
F5
tRp203
sg20
F0
sa(dp204
g8
F992.33333333333337
sg9
F1
sg10
(lp205
g12
(F-49
F-24
tRp206
ag12
(F49
F-24
tRp207
ag12
(F49
F24
tRp208
ag12
(F-49
F24
tRp209
asg17
F1000
sg18
g12
(F500
F40
tRp210
sg20
F0
sa(dp211
g8
F992.33333333333337
sg9
F1
sg10
(lp212
g12
(F-49
F-24
tRp213
ag12
(F49
F-24
tRp214
ag12
(F49
F24
tRp215
ag12
(F-49
F24
tRp216
asg17
F1000
sg18
g12
(F514.00409221388566
F90
tRp217
sg20
F0
sa(dp218
g8
F992.33333333333337
sg9
F1
sg10
(lp219
g12
(F-24
F-49
tRp220
ag12
(F24
F-49
tRp221
ag12
(F24
F49
tRp222
ag12
(F-24
F49
tRp223
asg17
F1000
sg18
g12
(F475.93666319478575
F165
tRp224
sg20
F0
sa(dp225
g8
F992.33333333333337
sg9
F1
sg10
(lp226
g12
(F-24
F-49
tRp227
ag12
(F24
F-49
tRp228
ag12
(F24
F49
tRp229
ag12
(F-24
F49
tRp230
asg17
F1000
sg18
g12
(F462.86384188384739
F265
tRp231
sg20
F0
sa(dp232
g8
F992.33333333333337
sg9
F1
sg10
(lp233
g12
(F-24
F-49
tRp234
ag12
(F24
F-49
tRp235
ag12
(F24
F49
tRp236
ag12
(F-24
F49
tRp237
asg17
F1000
sg18
g12
(F468.09358413732934
F365
tRp238
sg20
F0
sa(dp239
g8
F992.33333333333337
sg9
F1
sg10
(lp240
g12
(F-49
F-24
tRp241
ag12
(F49
F-24
tRp242
ag12
(F49
F24
tRp243
ag12
(F-49
F24
tRp244
asg17
F1000
sg18
g12
(F467.30671088593408
F440
tRp245
sg20
F0
sa(dp246
g8
F992.33333333333337
sg9
F1
sg10
(lp247
g12
(F-24
F-49
tRp248
ag12
(F24
F-49
tRp249
ag12
(F24
F49
tRp250
ag12
(F-24
F49
tRp251
asg17
F1000
sg18
g12
(F474.41701819861004
F515
tRp252
sg20
F0
sasg70
(dp253
g72
g12
(F0
F0
tRp254
sg74
I10
ssa(dp255
g5
(lp256
(dp257
g8
Finf
sg9
Finf
sg10
(lp258
g12
(F-499
F-9
tRp259
ag12
(F499
F-9
tRp260
ag12
(F499
F9
tRp261
ag12
(F-499
F9
tRp262
asg17
F1000
sg18
g12
(F500
F5
tRp263
sg20
F0
sa(dp264
g8
F992.33333333333337
sg9
F1
sg10
(lp265
g12
(F-49
F-24
tRp266
ag12
(F49
F-24
tRp267
ag12
(F49
F24
tRp268
ag12
(F-49
F24
tRp269
asg17
F1000
sg18
g12
(F500
F40
tRp270
sg20
F0
sa(dp271
g8
F992.33333333333337
sg9
F1
sg10
(lp272
g12
(F-24
F-49
tRp273
ag12
(F24
F-49
tRp274
ag12
(F24
F49
tRp275
ag12
(F-24
F49
tRp276
asg17
F1000
sg18
g12
(F474.93309704801487
F115
tRp277
sg20
F0
sa(dp278
g8
F992.33333333333337
sg9
F1
sg10
(lp279
g12
(F-24
F-49
tRp280
ag12
(F24
F-49
tRp281
ag12
(F24
F49
tRp282
ag12
(F-24
F49
tRp283
asg17
F1000
sg18
g12
(F463.94359562030985
F215
tRp284
sg20
F0
sa(dp285
g8
F992.33333333333337
sg9
F1
sg10
(lp286
g12
(F-24
F-49
tRp287
ag12
(F24
F-49
tRp288
ag12
(F24
F49
tRp289
ag12
(F-24
F49
tRp290
asg17
F1000
sg18
g12
(F458.2977386726015
F315
tRp291
sg20
F0
sa(dp292
g8
F992.33333333333337
sg9
F1
sg10
(lp293
g12
(F-24
F-49
tRp294
ag12
(F24
F-49
tRp295
ag12
(F24
F49
tRp296
ag12
(F-24
F49
tRp297
asg17
F1000
sg18
g12
(F480.34155803685155
F415
tRp298
sg20
F0
sa(dp299
g8
F992.33333333333337
sg9
F1
sg10
(lp300
g12
(F-49
F-24
tRp301
ag12
(F49
F-24
tRp302
ag12
(F49
F24
tRp303
ag12
(F-49
F24
tRp304
asg17
F1000
sg18
g12
(F465.17107183792939
F490
tRp305
sg20
F0
sa(dp306
g8
F992.33333333333337
sg9
F1
sg10
(lp307
g12
(F-49
F-24
tRp308
ag12
(F49
F-24
tRp309
ag12
(F49
F24
tRp310
ag12
(F-49
F24
tRp311
asg17
F1000
sg18
g12
(F465.68392856869332
F540
tRp312
sg20
F0
sasg70
(dp313
g72
g12
(F0
F0
tRp314
sg74
I10
ssa(dp315
g5
(lp316
(dp317
g8
Finf
sg9
Finf
sg10
(lp318
g12
(F-499
F-9
tRp319
ag12
(F499
F-9
tRp320
ag12
(F499
F9
tRp321
ag12
(F-499
F9
tRp322
asg17
F1000
sg18
g12
(F500
F5
tRp323
sg20
F0
sa(dp324
g8
F992.33333333333337
sg9
F1
sg10
(lp325
g12
(F-49
F-24
tRp326
ag12
(F49
F-24
tRp327
ag12
(F49
F24
tRp328
ag12
(F-49
F24
tRp329
asg17
F1000
sg18
g12
(F500
F40
tRp330
sg20
F0
sa(dp331
g8
F992.33333333333337
sg9
F1
sg10
(lp332
g12
(F-24
F-49
tRp333
ag12
(F24
F-49
tRp334
ag12
(F24
F49
tRp335
ag12
(F-24
F49
tRp336
asg17
F1000
sg18
g12
(F515.18855989568465
F115
tRp337
sg20
F0
sa(dp338
g8
F992.33333333333337
sg9
F1
sg10
(lp339
g12
(F-49
F-24
tRp340
ag12
(F49
F-24
tRp341
ag12
(F49
F24
tRp342
ag12
(F-49
F24
tRp343
asg17
F1000
sg18
g12
(F534.72085893535643
F190
tRp344
sg20
F0
sa(dp345
g8
F992.33333333333337
sg9
F1
sg10
(lp346
g12
(F-49
F-24
tRp347
ag12
(F49
F-24
tRp348
ag12
(F49
F24
tRp349
ag12
(F-49
F24
tRp350
asg17
F1000
sg18
g12
(F534.56364740801405
F240
tRp351
sg20
F0
sa(dp352
g8
F992.33333333333337
sg9
F1
sg10
(lp353
g12
(F-49
F-24
tRp354
ag12
(F49
F-24
tRp355
ag12
(F49
F24
tRp356
ag12
(F-49
F24
tRp357
asg17
F1000
sg18
g12
(F535.61409942133423
F290
tRp358
sg20
F0
sa(dp359
g8
F992.33333333333337
sg9
F1
sg10
(lp360
g12
(F-24
F-49
tRp361
ag12
(F24
F-49
tRp362
ag12
(F24
F49
tRp363
ag12
(F-24
F49
tRp364
asg17
F1000
sg18
g12
(F539.45011471149382
F365
tRp365
sg20
F0
sa(dp366
g8
F992.33333333333337
sg9
F1
sg10
(lp367
g12
(F-24
F-49
tRp368
ag12
(F24
F-49
tRp369
ag12
(F24
F49
tRp370
ag12
(F-24
F49
tRp371
asg17
F1000
sg18
g12
(F523.25586273456202
F465
tRp372
sg20
F0
sasg70
(dp373
g72
g12
(F0
F0
tRp374
sg74
I10
ssa(dp375
g5
(lp376
(dp377
g8
Finf
sg9
Finf
sg10
(lp378
g12
(F-499
F-9
tRp379
ag12
(F499
F-9
tRp380
ag12
(F499
F9
tRp381
ag12
(F-499
F9
tRp382
asg17
F1000
sg18
g12
(F500
F5
tRp383
sg20
F0
sa(dp384
g8
F992.33333333333337
sg9
F1
sg10
(lp385
g12
(F-49
F-24
tRp386
ag12
(F49
F-24
tRp387
ag12
(F49
F24
tRp388
ag12
(F-49
F24
tRp389
asg17
F1000
sg18
g12
(F500
F40
tRp390
sg20
F0
sa(dp391
g8
F992.33333333333337
sg9
F1
sg10
(lp392
g12
(F-49
F-24
tRp393
ag12
(F49
F-24
tRp394
ag12
(F49
F24
tRp395
ag12
(F-49
F24
tRp396
asg17
F1000
sg18
g12
(F465.69698110288317
F90
tRp397
sg20
F0
sa(dp398
g8
F992.33333333333337
sg9
F1
sg10
(lp399
g12
(F-24
F-49
tRp400
ag12
(F24
F-49
tRp401
ag12
(F24
F49
tRp402
ag12
(F-24
F49
tRp403
asg17
F1000
sg18
g12
(F456.97245087088652
F165
tRp404
sg20
F0
sa(dp405
g8
F992.33333333333337
sg9
F1
sg10
(lp406
g12
(F-49
F-24
tRp407
ag12
(F49
F-24
tRp408
ag12
(F49
F24
tRp409
ag12
(F-49
F24
tRp410
asg17
F1000
sg18
g12
(F408.62748034741082
F240
tRp411
sg20
F0
sa(dp412
g8
F992.33333333333337
sg9
F1
sg10
(lp413
g12
(F-24
F-49
tRp414
ag12
(F24
F-49
tRp415
ag12
(F24
F49
tRp416
ag12
(F-24
F49
tRp417
asg17
F1000
sg18
g12
(F396.38742465263977
F315
tRp418
sg20
F0
sa(dp419
g8
F992.33333333333337
sg9
F1
sg10
(lp420
g12
(F-24
F-49
tRp421
ag12
(F24
F-49
tRp422
ag12
(F24
F49
tRp423
ag12
(F-24
F49
tRp424
asg17
F1000
sg18
g12
(F403.62125645005159
F415
tRp425
sg20
F0
sa(dp426
g8
F992.33333333333337
sg9
F1
sg10
(lp427
g12
(F-24
F-49
tRp428
ag12
(F24
F-49
tRp429
ag12
(F24
F49
tRp430
ag12
(F-24
F49
tRp431
asg17
F1000
sg18
g12
(F377.40668077041653
F515
tRp432
sg20
F0
sasg70
(dp433
g72
g12
(F0
F0
tRp434
sg74
I10
ssa(dp435
g5
(lp436
(dp437
g8
Finf
sg9
Finf
sg10
(lp438
g12
(F-499
F-9
tRp439
ag12
(F499
F-9
tRp440
ag12
(F499
F9
tRp441
ag12
(F-499
F9
tRp442
asg17
F1000
sg18
g12
(F500
F5
tRp443
sg20
F0
sa(dp444
g8
F992.33333333333337
sg9
F1
sg10
(lp445
g12
(F-49
F-24
tRp446
ag12
(F49
F-24
tRp447
ag12
(F49
F24
tRp448
ag12
(F-49
F24
tRp449
asg17
F1000
sg18
g12
(F500
F40
tRp450
sg20
F0
sa(dp451
g8
F992.33333333333337
sg9
F1
sg10
(lp452
g12
(F-24
F-49
tRp453
ag12
(F24
F-49
tRp454
ag12
(F24
F49
tRp455
ag12
(F-24
F49
tRp456
asg17
F1000
sg18
g12
(F477.13667493124274
F115
tRp457
sg20
F0
sa(dp458
g8
F992.33333333333337
sg9
F1
sg10
(lp459
g12
(F-24
F-49
tRp460
ag12
(F24
F-49
tRp461
ag12
(F24
F49
tRp462
ag12
(F-24
F49
tRp463
asg17
F1000
sg18
g12
(F469.22009178353466
F215
tRp464
sg20
F0
sa(dp465
g8
F992.33333333333337
sg9
F1
sg10
(lp466
g12
(F-24
F-49
tRp467
ag12
(F24
F-49
tRp468
ag12
(F24
F49
tRp469
ag12
(F-24
F49
tRp470
asg17
F1000
sg18
g12
(F483.6586544775671
F315
tRp471
sg20
F0
sa(dp472
g8
F992.33333333333337
sg9
F1
sg10
(lp473
g12
(F-49
F-24
tRp474
ag12
(F49
F-24
tRp475
ag12
(F49
F24
tRp476
ag12
(F-49
F24
tRp477
asg17
F1000
sg18
g12
(F454.02135705662857
F390
tRp478
sg20
F0
sa(dp479
g8
F992.33333333333337
sg9
F1
sg10
(lp480
g12
(F-24
F-49
tRp481
ag12
(F24
F-49
tRp482
ag12
(F24
F49
tRp483
ag12
(F-24
F49
tRp484
asg17
F1000
sg18
g12
(F434.93022576123229
F465
tRp485
sg20
F0
sa(dp486
g8
F992.33333333333337
sg9
F1
sg10
(lp487
g12
(F-24
F-49
tRp488
ag12
(F24
F-49
tRp489
ag12
(F24
F49
tRp490
ag12
(F-24
F49
tRp491
asg17
F1000
sg18
g12
(F414.6814429746903
F565
tRp492
sg20
F0
sasg70
(dp493
g72
g12
(F0
F0
tRp494
sg74
I10
ssa(dp495
g5
(lp496
(dp497
g8
Finf
sg9
Finf
sg10
(lp498
g12
(F-499
F-9
tRp499
ag12
(F499
F-9
tRp500
ag12
(F499
F9
tRp501
ag12
(F-499
F9
tRp502
asg17
F1000
sg18
g12
(F500
F5
tRp503
sg20
F0
sa(dp504
g8
F992.33333333333337
sg9
F1
sg10
(lp505
g12
(F-49
F-24
tRp506
ag12
(F49
F-24
tRp507
ag12
(F49
F24
tRp508
ag12
(F-49
F24
tRp509
asg17
F1000
sg18
g12
(F500
F40
tRp510
sg20
F0
sa(dp511
g8
F992.33333333333337
sg9
F1
sg10
(lp512
g12
(F-24
F-49
tRp513
ag12
(F24
F-49
tRp514
ag12
(F24
F49
tRp515
ag12
(F-24
F49
tRp516
asg17
F1000
sg18
g12
(F456.07706778875053
F115
tRp517
sg20
F0
sa(dp518
g8
F992.33333333333337
sg9
F1
sg10
(lp519
g12
(F-24
F-49
tRp520
ag12
(F24
F-49
tRp521
ag12
(F24
F49
tRp522
ag12
(F-24
F49
tRp523
asg17
F1000
sg18
g12
(F464.8925931211154
F215
tRp524
sg20
F0
sa(dp525
g8
F992.33333333333337
sg9
F1
sg10
(lp526
g12
(F-24
F-49
tRp527
ag12
(F24
F-49
tRp528
ag12
(F24
F49
tRp529
ag12
(F-24
F49
tRp530
asg17
F1000
sg18
g12
(F473.48326158316542
F315
tRp531
sg20
F0
sa(dp532
g8
F992.33333333333337
sg9
F1
sg10
(lp533
g12
(F-24
F-49
tRp534
ag12
(F24
F-49
tRp535
ag12
(F24
F49
tRp536
ag12
(F-24
F49
tRp537
asg17
F1000
sg18
g12
(F445.49099940165996
F415
tRp538
sg20
F0
sa(dp539
g8
F992.33333333333337
sg9
F1
sg10
(lp540
g12
(F-49
F-24
tRp541
ag12
(F49
F-24
tRp542
ag12
(F49
F24
tRp543
ag12
(F-49
F24
tRp544
asg17
F1000
sg18
g12
(F450.76813240298679
F490
tRp545
sg20
F0
sa(dp546
g8
F992.33333333333337
sg9
F1
sg10
(lp547
g12
(F-24
F-49
tRp548
ag12
(F24
F-49
tRp549
ag12
(F24
F49
tRp550
ag12
(F-24
F49
tRp551
asg17
F1000
sg18
g12
(F460.90783351494599
F565
tRp552
sg20
F0
sasg70
(dp553
g72
g12
(F0
F0
tRp554
sg74
I10
ssa(dp555
g5
(lp556
(dp557
g8
Finf
sg9
Finf
sg10
(lp558
g12
(F-499
F-9
tRp559
ag12
(F499
F-9
tRp560
ag12
(F499
F9
tRp561
ag12
(F-499
F9
tRp562
asg17
F1000
sg18
g12
(F500
F5
tRp563
sg20
F0
sa(dp564
g8
F992.33333333333337
sg9
F1
sg10
(lp565
g12
(F-49
F-24
tRp566
ag12
(F49
F-24
tRp567
ag12
(F49
F24
tRp568
ag12
(F-49
F24
tRp569
asg17
F1000
sg18
g12
(F500
F40
tRp570
sg20
F0
sa(dp571
g8
F992.33333333333337
sg9
F1
sg10
(lp572
g12
(F-49
F-24
tRp573
ag12
(F49
F-24
tRp574
ag12
(F49
F24
tRp575
ag12
(F-49
F24
tRp576
asg17
F1000
sg18
g12
(F561.56404277930369
F90
tRp577
sg20
F0
sa(dp578
g8
F992.33333333333337
sg9
F1
sg10
(lp579
g12
(F-24
F-49
tRp580
ag12
(F24
F-49
tRp581
ag12
(F24
F49
tRp582
ag12
(F-24
F49
tRp583
asg17
F1000
sg18
g12
(F609.58161760779751
F165
tRp584
sg20
F0
sa(dp585
g8
F992.33333333333337
sg9
F1
sg10
(lp586
g12
(F-24
F-49
tRp587
ag12
(F24
F-49
tRp588
ag12
(F24
F49
tRp589
ag12
(F-24
F49
tRp590
asg17
F1000
sg18
g12
(F611.81184329825282
F265
tRp591
sg20
F0
sa(dp592
g8
F992.33333333333337
sg9
F1
sg10
(lp593
g12
(F-24
F-49
tRp594
ag12
(F24
F-49
tRp595
ag12
(F24
F49
tRp596
ag12
(F-24
F49
tRp597
asg17
F1000
sg18
g12
(F614.5417109370261
F365
tRp598
sg20
F0
sa(dp599
g8
F992.33333333333337
sg9
F1
sg10
(lp600
g12
(F-24
F-49
tRp601
ag12
(F24
F-49
tRp602
ag12
(F24
F49
tRp603
ag12
(F-24
F49
tRp604
asg17
F1000
sg18
g12
(F614.11871070504765
F465
tRp605
sg20
F0
sa(dp606
g8
F992.33333333333337
sg9
F1
sg10
(lp607
g12
(F-24
F-49
tRp608
ag12
(F24
F-49
tRp609
ag12
(F24
F49
tRp610
ag12
(F-24
F49
tRp611
asg17
F1000
sg18
g12
(F612.36208775669695
F565
tRp612
sg20
F0
sasg70
(dp613
g72
g12
(F0
F0
tRp614
sg74
I10
ssa(dp615
g5
(lp616
(dp617
g8
Finf
sg9
Finf
sg10
(lp618
g12
(F-499
F-9
tRp619
ag12
(F499
F-9
tRp620
ag12
(F499
F9
tRp621
ag12
(F-499
F9
tRp622
asg17
F1000
sg18
g12
(F500
F5
tRp623
sg20
F0
sa(dp624
g8
F992.33333333333337
sg9
F1
sg10
(lp625
g12
(F-49
F-24
tRp626
ag12
(F49
F-24
tRp627
ag12
(F49
F24
tRp628
ag12
(F-49
F24
tRp629
asg17
F1000
sg18
g12
(F500
F40
tRp630
sg20
F0
sa(dp631
g8
F992.33333333333337
sg9
F1
sg10
(lp632
g12
(F-24
F-49
tRp633
ag12
(F24
F-49
tRp634
ag12
(F24
F49
tRp635
ag12
(F-24
F49
tRp636
asg17
F1000
sg18
g12
(F473.34395271864463
F115
tRp637
sg20
F0
sa(dp638
g8
F992.33333333333337
sg9
F1
sg10
(lp639
g12
(F-24
F-49
tRp640
ag12
(F24
F-49
tRp641
ag12
(F24
F49
tRp642
ag12
(F-24
F49
tRp643
asg17
F1000
sg18
g12
(F456.14171885335605
F215
tRp644
sg20
F0
sa(dp645
g8
F992.33333333333337
sg9
F1
sg10
(lp646
g12
(F-24
F-49
tRp647
ag12
(F24
F-49
tRp648
ag12
(F24
F49
tRp649
ag12
(F-24
F49
tRp650
asg17
F1000
sg18
g12
(F440.1282024948855
F315
tRp651
sg20
F0
sa(dp652
g8
F992.33333333333337
sg9
F1
sg10
(lp653
g12
(F-49
F-24
tRp654
ag12
(F49
F-24
tRp655
ag12
(F49
F24
tRp656
ag12
(F-49
F24
tRp657
asg17
F1000
sg18
g12
(F446.34796593185047
F390
tRp658
sg20
F0
sa(dp659
g8
F992.33333333333337
sg9
F1
sg10
(lp660
g12
(F-24
F-49
tRp661
ag12
(F24
F-49
tRp662
ag12
(F24
F49
tRp663
ag12
(F-24
F49
tRp664
asg17
F1000
sg18
g12
(F427.75470608535113
F465
tRp665
sg20
F0
sa(dp666
g8
F992.33333333333337
sg9
F1
sg10
(lp667
g12
(F-49
F-24
tRp668
ag12
(F49
F-24
tRp669
ag12
(F49
F24
tRp670
ag12
(F-49
F24
tRp671
asg17
F1000
sg18
g12
(F412.33707832332419
F540
tRp672
sg20
F0
sasg70
(dp673
g72
g12
(F0
F0
tRp674
sg74
I10
ssa(dp675
g5
(lp676
(dp677
g8
Finf
sg9
Finf
sg10
(lp678
g12
(F-499
F-9
tRp679
ag12
(F499
F-9
tRp680
ag12
(F499
F9
tRp681
ag12
(F-499
F9
tRp682
asg17
F1000
sg18
g12
(F500
F5
tRp683
sg20
F0
sa(dp684
g8
F992.33333333333337
sg9
F1
sg10
(lp685
g12
(F-49
F-24
tRp686
ag12
(F49
F-24
tRp687
ag12
(F49
F24
tRp688
ag12
(F-49
F24
tRp689
asg17
F1000
sg18
g12
(F500
F40
tRp690
sg20
F0
sa(dp691
g8
F992.33333333333337
sg9
F1
sg10
(lp692
g12
(F-49
F-24
tRp693
ag12
(F49
F-24
tRp694
ag12
(F49
F24
tRp695
ag12
(F-49
F24
tRp696
asg17
F1000
sg18
g12
(F425.49080203177721
F90
tRp697
sg20
F0
sa(dp698
g8
F992.33333333333337
sg9
F1
sg10
(lp699
g12
(F-24
F-49
tRp700
ag12
(F24
F-49
tRp701
ag12
(F24
F49
tRp702
ag12
(F-24
F49
tRp703
asg17
F1000
sg18
g12
(F425.62640169262875
F165
tRp704
sg20
F0
sa(dp705
g8
F992.33333333333337
sg9
F1
sg10
(lp706
g12
(F-24
F-49
tRp707
ag12
(F24
F-49
tRp708
ag12
(F24
F49
tRp709
ag12
(F-24
F49
tRp710
asg17
F1000
sg18
g12
(F454.34457478063905
F265
tRp711
sg20
F0
sa(dp712
g8
F992.33333333333337
sg9
F1
sg10
(lp713
g12
(F-24
F-49
tRp714
ag12
(F24
F-49
tRp715
ag12
(F24
F49
tRp716
ag12
(F-24
F49
tRp717
asg17
F1000
sg18
g12
(F435.03321957992193
F365
tRp718
sg20
F0
sa(dp719
g8
F992.33333333333337
sg9
F1
sg10
(lp720
g12
(F-24
F-49
tRp721
ag12
(F24
F-49
tRp722
ag12
(F24
F49
tRp723
ag12
(F-24
F49
tRp724
asg17
F1000
sg18
g12
(F414.94812992180562
F465
tRp725
sg20
F0
sa(dp726
g8
F992.33333333333337
sg9
F1
sg10
(lp727
g12
(F-49
F-24
tRp728
ag12
(F49
F-24
tRp729
ag12
(F49
F24
tRp730
ag12
(F-49
F24
tRp731
asg17
F1000
sg18
g12
(F457.40973566331667
F540
tRp732
sg20
F0
sasg70
(dp733
g72
g12
(F0
F0
tRp734
sg74
I10
ssa(dp735
g5
(lp736
(dp737
g8
Finf
sg9
Finf
sg10
(lp738
g12
(F-499
F-9
tRp739
ag12
(F499
F-9
tRp740
ag12
(F499
F9
tRp741
ag12
(F-499
F9
tRp742
asg17
F1000
sg18
g12
(F500
F5
tRp743
sg20
F0
sa(dp744
g8
F992.33333333333337
sg9
F1
sg10
(lp745
g12
(F-49
F-24
tRp746
ag12
(F49
F-24
tRp747
ag12
(F49
F24
tRp748
ag12
(F-49
F24
tRp749
asg17
F1000
sg18
g12
(F500
F40
tRp750
sg20
F0
sa(dp751
g8
F992.33333333333337
sg9
F1
sg10
(lp752
g12
(F-49
F-24
tRp753
ag12
(F49
F-24
tRp754
ag12
(F49
F24
tRp755
ag12
(F-49
F24
tRp756
asg17
F1000
sg18
g12
(F494.92016331930114
F90
tRp757
sg20
F0
sa(dp758
g8
F992.33333333333337
sg9
F1
sg10
(lp759
g12
(F-49
F-24
tRp760
ag12
(F49
F-24
tRp761
ag12
(F49
F24
tRp762
ag12
(F-49
F24
tRp763
asg17
F1000
sg18
g12
(F515.52747224803636
F140
tRp764
sg20
F0
sa(dp765
g8
F992.33333333333337
sg9
F1
sg10
(lp766
g12
(F-49
F-24
tRp767
ag12
(F49
F-24
tRp768
ag12
(F49
F24
tRp769
ag12
(F-49
F24
tRp770
asg17
F1000
sg18
g12
(F449.380320804929
F190
tRp771
sg20
F0
sa(dp772
g8
F992.33333333333337
sg9
F1
sg10
(lp773
g12
(F-49
F-24
tRp774
ag12
(F49
F-24
tRp775
ag12
(F49
F24
tRp776
ag12
(F-49
F24
tRp777
asg17
F1000
sg18
g12
(F410.75965217849199
F240
tRp778
sg20
F0
sa(dp779
g8
F992.33333333333337
sg9
F1
sg10
(lp780
g12
(F-49
F-24
tRp781
ag12
(F49
F-24
tRp782
ag12
(F49
F24
tRp783
ag12
(F-49
F24
tRp784
asg17
F1000
sg18
g12
(F402.79495681549366
F290
tRp785
sg20
F0
sa(dp786
g8
F992.33333333333337
sg9
F1
sg10
(lp787
g12
(F-49
F-24
tRp788
ag12
(F49
F-24
tRp789
ag12
(F49
F24
tRp790
ag12
(F-49
F24
tRp791
asg17
F1000
sg18
g12
(F413.1110125254155
F340
tRp792
sg20
F0
sasg70
(dp793
g72
g12
(F0
F0
tRp794
sg74
I10
ssa(dp795
g5
(lp796
(dp797
g8
Finf
sg9
Finf
sg10
(lp798
g12
(F-499
F-9
tRp799
ag12
(F499
F-9
tRp800
ag12
(F499
F9
tRp801
ag12
(F-499
F9
tRp802
asg17
F1000
sg18
g12
(F500
F5
tRp803
sg20
F0
sa(dp804
g8
F992.33333333333337
sg9
F1
sg10
(lp805
g12
(F-49
F-24
tRp806
ag12
(F49
F-24
tRp807
ag12
(F49
F24
tRp808
ag12
(F-49
F24
tRp809
asg17
F1000
sg18
g12
(F500
F40
tRp810
sg20
F0
sa(dp811
g8
F992.33333333333337
sg9
F1
sg10
(lp812
g12
(F-49
F-24
tRp813
ag12
(F49
F-24
tRp814
ag12
(F49
F24
tRp815
ag12
(F-49
F24
tRp816
asg17
F1000
sg18
g12
(F471.24801128161346
F90
tRp817
sg20
F0
sa(dp818
g8
F992.33333333333337
sg9
F1
sg10
(lp819
g12
(F-24
F-49
tRp820
ag12
(F24
F-49
tRp821
ag12
(F24
F49
tRp822
ag12
(F-24
F49
tRp823
asg17
F1000
sg18
g12
(F411.58954696217927
F165
tRp824
sg20
F0
sa(dp825
g8
F992.33333333333337
sg9
F1
sg10
(lp826
g12
(F-24
F-49
tRp827
ag12
(F24
F-49
tRp828
ag12
(F24
F49
tRp829
ag12
(F-24
F49
tRp830
asg17
F1000
sg18
g12
(F426.30108146339722
F265
tRp831
sg20
F0
sa(dp832
g8
F992.33333333333337
sg9
F1
sg10
(lp833
g12
(F-49
F-24
tRp834
ag12
(F49
F-24
tRp835
ag12
(F49
F24
tRp836
ag12
(F-49
F24
tRp837
asg17
F1000
sg18
g12
(F415.43159827650823
F340
tRp838
sg20
F0
sa(dp839
g8
F992.33333333333337
sg9
F1
sg10
(lp840
g12
(F-24
F-49
tRp841
ag12
(F24
F-49
tRp842
ag12
(F24
F49
tRp843
ag12
(F-24
F49
tRp844
asg17
F1000
sg18
g12
(F362.31893280262801
F415
tRp845
sg20
F0
sa(dp846
g8
F992.33333333333337
sg9
F1
sg10
(lp847
g12
(F-24
F-49
tRp848
ag12
(F24
F-49
tRp849
ag12
(F24
F49
tRp850
ag12
(F-24
F49
tRp851
asg17
F1000
sg18
g12
(F358.77422571610634
F515
tRp852
sg20
F0
sasg70
(dp853
g72
g12
(F0
F0
tRp854
sg74
I10
ssa(dp855
g5
(lp856
(dp857
g8
Finf
sg9
Finf
sg10
(lp858
g12
(F-499
F-9
tRp859
ag12
(F499
F-9
tRp860
ag12
(F499
F9
tRp861
ag12
(F-499
F9
tRp862
asg17
F1000
sg18
g12
(F500
F5
tRp863
sg20
F0
sa(dp864
g8
F992.33333333333337
sg9
F1
sg10
(lp865
g12
(F-49
F-24
tRp866
ag12
(F49
F-24
tRp867
ag12
(F49
F24
tRp868
ag12
(F-49
F24
tRp869
asg17
F1000
sg18
g12
(F500
F40
tRp870
sg20
F0
sa(dp871
g8
F992.33333333333337
sg9
F1
sg10
(lp872
g12
(F-49
F-24
tRp873
ag12
(F49
F-24
tRp874
ag12
(F49
F24
tRp875
ag12
(F-49
F24
tRp876
asg17
F1000
sg18
g12
(F526.596666177614
F90
tRp877
sg20
F0
sa(dp878
g8
F992.33333333333337
sg9
F1
sg10
(lp879
g12
(F-24
F-49
tRp880
ag12
(F24
F-49
tRp881
ag12
(F24
F49
tRp882
ag12
(F-24
F49
tRp883
asg17
F1000
sg18
g12
(F541.8226076142696
F165
tRp884
sg20
F0
sa(dp885
g8
F992.33333333333337
sg9
F1
sg10
(lp886
g12
(F-49
F-24
tRp887
ag12
(F49
F-24
tRp888
ag12
(F49
F24
tRp889
ag12
(F-49
F24
tRp890
asg17
F1000
sg18
g12
(F497.74949852132414
F240
tRp891
sg20
F0
sa(dp892
g8
F992.33333333333337
sg9
F1
sg10
(lp893
g12
(F-49
F-24
tRp894
ag12
(F49
F-24
tRp895
ag12
(F49
F24
tRp896
ag12
(F-49
F24
tRp897
asg17
F1000
sg18
g12
(F471.19536537716488
F290
tRp898
sg20
F0
sa(dp899
g8
F992.33333333333337
sg9
F1
sg10
(lp900
g12
(F-24
F-49
tRp901
ag12
(F24
F-49
tRp902
ag12
(F24
F49
tRp903
ag12
(F-24
F49
tRp904
asg17
F1000
sg18
g12
(F425.38715427796166
F365
tRp905
sg20
F0
sa(dp906
g8
F992.33333333333337
sg9
F1
sg10
(lp907
g12
(F-49
F-24
tRp908
ag12
(F49
F-24
tRp909
ag12
(F49
F24
tRp910
ag12
(F-49
F24
tRp911
asg17
F1000
sg18
g12
(F399.77827527871716
F440
tRp912
sg20
F0
sasg70
(dp913
g72
g12
(F0
F0
tRp914
sg74
I10
ssa(dp915
g5
(lp916
(dp917
g8
Finf
sg9
Finf
sg10
(lp918
g12
(F-499
F-9
tRp919
ag12
(F499
F-9
tRp920
ag12
(F499
F9
tRp921
ag12
(F-499
F9
tRp922
asg17
F1000
sg18
g12
(F500
F5
tRp923
sg20
F0
sa(dp924
g8
F992.33333333333337
sg9
F1
sg10
(lp925
g12
(F-49
F-24
tRp926
ag12
(F49
F-24
tRp927
ag12
(F49
F24
tRp928
ag12
(F-49
F24
tRp929
asg17
F1000
sg18
g12
(F500
F40
tRp930
sg20
F0
sa(dp931
g8
F992.33333333333337
sg9
F1
sg10
(lp932
g12
(F-49
F-24
tRp933
ag12
(F49
F-24
tRp934
ag12
(F49
F24
tRp935
ag12
(F-49
F24
tRp936
asg17
F1000
sg18
g12
(F521.13181141102586
F90
tRp937
sg20
F0
sa(dp938
g8
F992.33333333333337
sg9
F1
sg10
(lp939
g12
(F-24
F-49
tRp940
ag12
(F24
F-49
tRp941
ag12
(F24
F49
tRp942
ag12
(F-24
F49
tRp943
asg17
F1000
sg18
g12
(F508.62786038366011
F165
tRp944
sg20
F0
sa(dp945
g8
F992.33333333333337
sg9
F1
sg10
(lp946
g12
(F-24
F-49
tRp947
ag12
(F24
F-49
tRp948
ag12
(F24
F49
tRp949
ag12
(F-24
F49
tRp950
asg17
F1000
sg18
g12
(F494.40547509051885
F265
tRp951
sg20
F0
sa(dp952
g8
F992.33333333333337
sg9
F1
sg10
(lp953
g12
(F-49
F-24
tRp954
ag12
(F49
F-24
tRp955
ag12
(F49
F24
tRp956
ag12
(F-49
F24
tRp957
asg17
F1000
sg18
g12
(F497.12601504263193
F340
tRp958
sg20
F0
sa(dp959
g8
F992.33333333333337
sg9
F1
sg10
(lp960
g12
(F-49
F-24
tRp961
ag12
(F49
F-24
tRp962
ag12
(F49
F24
tRp963
ag12
(F-49
F24
tRp964
asg17
F1000
sg18
g12
(F525.66678155461375
F390
tRp965
sg20
F0
sa(dp966
g8
F992.33333333333337
sg9
F1
sg10
(lp967
g12
(F-24
F-49
tRp968
ag12
(F24
F-49
tRp969
ag12
(F24
F49
tRp970
ag12
(F-24
F49
tRp971
asg17
F1000
sg18
g12
(F513.73943328306984
F465
tRp972
sg20
F0
sasg70
(dp973
g72
g12
(F0
F0
tRp974
sg74
I10
ssa(dp975
g5
(lp976
(dp977
g8
Finf
sg9
Finf
sg10
(lp978
g12
(F-499
F-9
tRp979
ag12
(F499
F-9
tRp980
ag12
(F499
F9
tRp981
ag12
(F-499
F9
tRp982
asg17
F1000
sg18
g12
(F500
F5
tRp983
sg20
F0
sa(dp984
g8
F992.33333333333337
sg9
F1
sg10
(lp985
g12
(F-49
F-24
tRp986
ag12
(F49
F-24
tRp987
ag12
(F49
F24
tRp988
ag12
(F-49
F24
tRp989
asg17
F1000
sg18
g12
(F500
F40
tRp990
sg20
F0
sa(dp991
g8
F992.33333333333337
sg9
F1
sg10
(lp992
g12
(F-24
F-49
tRp993
ag12
(F24
F-49
tRp994
ag12
(F24
F49
tRp995
ag12
(F-24
F49
tRp996
asg17
F1000
sg18
g12
(F539.05130118826196
F115
tRp997
sg20
F0
sa(dp998
g8
F992.33333333333337
sg9
F1
sg10
(lp999
g12
(F-49
F-24
tRp1000
ag12
(F49
F-24
tRp1001
ag12
(F49
F24
tRp1002
ag12
(F-49
F24
tRp1003
asg17
F1000
sg18
g12
(F562.45756475032431
F190
tRp1004
sg20
F0
sa(dp1005
g8
F992.33333333333337
sg9
F1
sg10
(lp1006
g12
(F-24
F-49
tRp1007
ag12
(F24
F-49
tRp1008
ag12
(F24
F49
tRp1009
ag12
(F-24
F49
tRp1010
asg17
F1000
sg18
g12
(F586.2117547912859
F265
tRp1011
sg20
F0
sa(dp1012
g8
F992.33333333333337
sg9
F1
sg10
(lp1013
g12
(F-24
F-49
tRp1014
ag12
(F24
F-49
tRp1015
ag12
(F24
F49
tRp1016
ag12
(F-24
F49
tRp1017
asg17
F1000
sg18
g12
(F583.00177144920406
F365
tRp1018
sg20
F0
sa(dp1019
g8
F992.33333333333337
sg9
F1
sg10
(lp1020
g12
(F-49
F-24
tRp1021
ag12
(F49
F-24
tRp1022
ag12
(F49
F24
tRp1023
ag12
(F-49
F24
tRp1024
asg17
F1000
sg18
g12
(F574.33626877337826
F440
tRp1025
sg20
F0
sa(dp1026
g8
F992.33333333333337
sg9
F1
sg10
(lp1027
g12
(F-49
F-24
tRp1028
ag12
(F49
F-24
tRp1029
ag12
(F49
F24
tRp1030
ag12
(F-49
F24
tRp1031
asg17
F1000
sg18
g12
(F561.28438999178445
F490
tRp1032
sg20
F0
sasg70
(dp1033
g72
g12
(F0
F0
tRp1034
sg74
I10
ssa(dp1035
g5
(lp1036
(dp1037
g8
Finf
sg9
Finf
sg10
(lp1038
g12
(F-499
F-9
tRp1039
ag12
(F499
F-9
tRp1040
ag12
(F499
F9
tRp1041
ag12
(F-499
F9
tRp1042
asg17
F1000
sg18
g12
(F500
F5
tRp1043
sg20
F0
sa(dp1044
g8
F992.33333333333337
sg9
F1
sg10
(lp1045
g12
(F-49
F-24
tRp1046
ag12
(F49
F-24
tRp1047
ag12
(F49
F24
tRp1048
ag12
(F-49
F24
tRp1049
asg17
F1000
sg18
g12
(F500
F40
tRp1050
sg20
F0
sa(dp1051
g8
F992.33333333333337
sg9
F1
sg10
(lp1052
g12
(F-24
F-49
tRp1053
ag12
(F24
F-49
tRp1054
ag12
(F24
F49
tRp1055
ag12
(F-24
F49
tRp1056
asg17
F1000
sg18
g12
(F526.00957543273648
F115
tRp1057
sg20
F0
sa(dp1058
g8
F992.33333333333337
sg9
F1
sg10
(lp1059
g12
(F-49
F-24
tRp1060
ag12
(F49
F-24
tRp1061
ag12
(F49
F24
tRp1062
ag12
(F-49
F24
tRp1063
asg17
F1000
sg18
g12
(F555.14087046637758
F190
tRp1064
sg20
F0
sa(dp1065
g8
F992.33333333333337
sg9
F1
sg10
(lp1066
g12
(F-49
F-24
tRp1067
ag12
(F49
F-24
tRp1068
ag12
(F49
F24
tRp1069
ag12
(F-49
F24
tRp1070
asg17
F1000
sg18
g12
(F619.14302116515307
F240
tRp1071
sg20
F0
sa(dp1072
g8
F992.33333333333337
sg9
F1
sg10
(lp1073
g12
(F-24
F-49
tRp1074
ag12
(F24
F-49
tRp1075
ag12
(F24
F49
tRp1076
ag12
(F-24
F49
tRp1077
asg17
F1000
sg18
g12
(F598.16633573853755
F315
tRp1078
sg20
F0
sa(dp1079
g8
F992.33333333333337
sg9
F1
sg10
(lp1080
g12
(F-49
F-24
tRp1081
ag12
(F49
F-24
tRp1082
ag12
(F49
F24
tRp1083
ag12
(F-49
F24
tRp1084
asg17
F1000
sg18
g12
(F612.26154041895313
F390
tRp1085
sg20
F0
sa(dp1086
g8
F992.33333333333337
sg9
F1
sg10
(lp1087
g12
(F-24
F-49
tRp1088
ag12
(F24
F-49
tRp1089
ag12
(F24
F49
tRp1090
ag12
(F-24
F49
tRp1091
asg17
F1000
sg18
g12
(F622.17588101826379
F465
tRp1092
sg20
F0
sasg70
(dp1093
g72
g12
(F0
F0
tRp1094
sg74
I10
ssa(dp1095
g5
(lp1096
(dp1097
g8
Finf
sg9
Finf
sg10
(lp1098
g12
(F-499
F-9
tRp1099
ag12
(F499
F-9
tRp1100
ag12
(F499
F9
tRp1101
ag12
(F-499
F9
tRp1102
asg17
F1000
sg18
g12
(F500
F5
tRp1103
sg20
F0
sa(dp1104
g8
F992.33333333333337
sg9
F1
sg10
(lp1105
g12
(F-49
F-24
tRp1106
ag12
(F49
F-24
tRp1107
ag12
(F49
F24
tRp1108
ag12
(F-49
F24
tRp1109
asg17
F1000
sg18
g12
(F500
F40
tRp1110
sg20
F0
sa(dp1111
g8
F992.33333333333337
sg9
F1
sg10
(lp1112
g12
(F-24
F-49
tRp1113
ag12
(F24
F-49
tRp1114
ag12
(F24
F49
tRp1115
ag12
(F-24
F49
tRp1116
asg17
F1000
sg18
g12
(F521.88645254778862
F115
tRp1117
sg20
F0
sa(dp1118
g8
F992.33333333333337
sg9
F1
sg10
(lp1119
g12
(F-49
F-24
tRp1120
ag12
(F49
F-24
tRp1121
ag12
(F49
F24
tRp1122
ag12
(F-49
F24
tRp1123
asg17
F1000
sg18
g12
(F517.02397565943011
F190
tRp1124
sg20
F0
sa(dp1125
g8
F992.33333333333337
sg9
F1
sg10
(lp1126
g12
(F-49
F-24
tRp1127
ag12
(F49
F-24
tRp1128
ag12
(F49
F24
tRp1129
ag12
(F-49
F24
tRp1130
asg17
F1000
sg18
g12
(F481.97781589593649
F240
tRp1131
sg20
F0
sa(dp1132
g8
F992.33333333333337
sg9
F1
sg10
(lp1133
g12
(F-49
F-24
tRp1134
ag12
(F49
F-24
tRp1135
ag12
(F49
F24
tRp1136
ag12
(F-49
F24
tRp1137
asg17
F1000
sg18
g12
(F501.99541256989721
F290
tRp1138
sg20
F0
sa(dp1139
g8
F992.33333333333337
sg9
F1
sg10
(lp1140
g12
(F-24
F-49
tRp1141
ag12
(F24
F-49
tRp1142
ag12
(F24
F49
tRp1143
ag12
(F-24
F49
tRp1144
asg17
F1000
sg18
g12
(F461.37532021889984
F365
tRp1145
sg20
F0
sa(dp1146
g8
F992.33333333333337
sg9
F1
sg10
(lp1147
g12
(F-49
F-24
tRp1148
ag12
(F49
F-24
tRp1149
ag12
(F49
F24
tRp1150
ag12
(F-49
F24
tRp1151
asg17
F1000
sg18
g12
(F435.83034505547857
F440
tRp1152
sg20
F0
sasg70
(dp1153
g72
g12
(F0
F0
tRp1154
sg74
I10
ssa(dp1155
g5
(lp1156
(dp1157
g8
Finf
sg9
Finf
sg10
(lp1158
g12
(F-499
F-9
tRp1159
ag12
(F499
F-9
tRp1160
ag12
(F499
F9
tRp1161
ag12
(F-499
F9
tRp1162
asg17
F1000
sg18
g12
(F500
F5
tRp1163
sg20
F0
sa(dp1164
g8
F992.33333333333337
sg9
F1
sg10
(lp1165
g12
(F-49
F-24
tRp1166
ag12
(F49
F-24
tRp1167
ag12
(F49
F24
tRp1168
ag12
(F-49
F24
tRp1169
asg17
F1000
sg18
g12
(F500
F40
tRp1170
sg20
F0
sa(dp1171
g8
F992.33333333333337
sg9
F1
sg10
(lp1172
g12
(F-49
F-24
tRp1173
ag12
(F49
F-24
tRp1174
ag12
(F49
F24
tRp1175
ag12
(F-49
F24
tRp1176
asg17
F1000
sg18
g12
(F531.29601048931534
F90
tRp1177
sg20
F0
sa(dp1178
g8
F992.33333333333337
sg9
F1
sg10
(lp1179
g12
(F-24
F-49
tRp1180
ag12
(F24
F-49
tRp1181
ag12
(F24
F49
tRp1182
ag12
(F-24
F49
tRp1183
asg17
F1000
sg18
g12
(F487.35047936222702
F165
tRp1184
sg20
F0
sa(dp1185
g8
F992.33333333333337
sg9
F1
sg10
(lp1186
g12
(F-49
F-24
tRp1187
ag12
(F49
F-24
tRp1188
ag12
(F49
F24
tRp1189
ag12
(F-49
F24
tRp1190
asg17
F1000
sg18
g12
(F490.06958270104519
F240
tRp1191
sg20
F0
sa(dp1192
g8
F992.33333333333337
sg9
F1
sg10
(lp1193
g12
(F-24
F-49
tRp1194
ag12
(F24
F-49
tRp1195
ag12
(F24
F49
tRp1196
ag12
(F-24
F49
tRp1197
asg17
F1000
sg18
g12
(F514.14715132150525
F315
tRp1198
sg20
F0
sa(dp1199
g8
F992.33333333333337
sg9
F1
sg10
(lp1200
g12
(F-49
F-24
tRp1201
ag12
(F49
F-24
tRp1202
ag12
(F49
F24
tRp1203
ag12
(F-49
F24
tRp1204
asg17
F1000
sg18
g12
(F541.95301163343856
F390
tRp1205
sg20
F0
sa(dp1206
g8
F992.33333333333337
sg9
F1
sg10
(lp1207
g12
(F-49
F-24
tRp1208
ag12
(F49
F-24
tRp1209
ag12
(F49
F24
tRp1210
ag12
(F-49
F24
tRp1211
asg17
F1000
sg18
g12
(F582.70993742615292
F440
tRp1212
sg20
F0
sasg70
(dp1213
g72
g12
(F0
F0
tRp1214
sg74
I10
ssa(dp1215
g5
(lp1216
(dp1217
g8
Finf
sg9
Finf
sg10
(lp1218
g12
(F-499
F-9
tRp1219
ag12
(F499
F-9
tRp1220
ag12
(F499
F9
tRp1221
ag12
(F-499
F9
tRp1222
asg17
F1000
sg18
g12
(F500
F5
tRp1223
sg20
F0
sa(dp1224
g8
F992.33333333333337
sg9
F1
sg10
(lp1225
g12
(F-49
F-24
tRp1226
ag12
(F49
F-24
tRp1227
ag12
(F49
F24
tRp1228
ag12
(F-49
F24
tRp1229
asg17
F1000
sg18
g12
(F500
F40
tRp1230
sg20
F0
sa(dp1231
g8
F992.33333333333337
sg9
F1
sg10
(lp1232
g12
(F-49
F-24
tRp1233
ag12
(F49
F-24
tRp1234
ag12
(F49
F24
tRp1235
ag12
(F-49
F24
tRp1236
asg17
F1000
sg18
g12
(F499.39556875453866
F90
tRp1237
sg20
F0
sa(dp1238
g8
F992.33333333333337
sg9
F1
sg10
(lp1239
g12
(F-49
F-24
tRp1240
ag12
(F49
F-24
tRp1241
ag12
(F49
F24
tRp1242
ag12
(F-49
F24
tRp1243
asg17
F1000
sg18
g12
(F433.57857871027522
F140
tRp1244
sg20
F0
sa(dp1245
g8
F992.33333333333337
sg9
F1
sg10
(lp1246
g12
(F-24
F-49
tRp1247
ag12
(F24
F-49
tRp1248
ag12
(F24
F49
tRp1249
ag12
(F-24
F49
tRp1250
asg17
F1000
sg18
g12
(F458.19151614545689
F215
tRp1251
sg20
F0
sa(dp1252
g8
F992.33333333333337
sg9
F1
sg10
(lp1253
g12
(F-49
F-24
tRp1254
ag12
(F49
F-24
tRp1255
ag12
(F49
F24
tRp1256
ag12
(F-49
F24
tRp1257
asg17
F1000
sg18
g12
(F434.93858316267284
F290
tRp1258
sg20
F0
sa(dp1259
g8
F992.33333333333337
sg9
F1
sg10
(lp1260
g12
(F-24
F-49
tRp1261
ag12
(F24
F-49
tRp1262
ag12
(F24
F49
tRp1263
ag12
(F-24
F49
tRp1264
asg17
F1000
sg18
g12
(F423.31102304794757
F365
tRp1265
sg20
F0
sa(dp1266
g8
F992.33333333333337
sg9
F1
sg10
(lp1267
g12
(F-49
F-24
tRp1268
ag12
(F49
F-24
tRp1269
ag12
(F49
F24
tRp1270
ag12
(F-49
F24
tRp1271
asg17
F1000
sg18
g12
(F447.42265924769191
F440
tRp1272
sg20
F0
sasg70
(dp1273
g72
g12
(F0
F0
tRp1274
sg74
I10
ssa(dp1275
g5
(lp1276
(dp1277
g8
Finf
sg9
Finf
sg10
(lp1278
g12
(F-499
F-9
tRp1279
ag12
(F499
F-9
tRp1280
ag12
(F499
F9
tRp1281
ag12
(F-499
F9
tRp1282
asg17
F1000
sg18
g12
(F500
F5
tRp1283
sg20
F0
sa(dp1284
g8
F992.33333333333337
sg9
F1
sg10
(lp1285
g12
(F-49
F-24
tRp1286
ag12
(F49
F-24
tRp1287
ag12
(F49
F24
tRp1288
ag12
(F-49
F24
tRp1289
asg17
F1000
sg18
g12
(F500
F40
tRp1290
sg20
F0
sa(dp1291
g8
F992.33333333333337
sg9
F1
sg10
(lp1292
g12
(F-49
F-24
tRp1293
ag12
(F49
F-24
tRp1294
ag12
(F49
F24
tRp1295
ag12
(F-49
F24
tRp1296
asg17
F1000
sg18
g12
(F534.78549998595713
F90
tRp1297
sg20
F0
sa(dp1298
g8
F992.33333333333337
sg9
F1
sg10
(lp1299
g12
(F-24
F-49
tRp1300
ag12
(F24
F-49
tRp1301
ag12
(F24
F49
tRp1302
ag12
(F-24
F49
tRp1303
asg17
F1000
sg18
g12
(F510.00963811420803
F165
tRp1304
sg20
F0
sa(dp1305
g8
F992.33333333333337
sg9
F1
sg10
(lp1306
g12
(F-24
F-49
tRp1307
ag12
(F24
F-49
tRp1308
ag12
(F24
F49
tRp1309
ag12
(F-24
F49
tRp1310
asg17
F1000
sg18
g12
(F502.43770346362169
F265
tRp1311
sg20
F0
sa(dp1312
g8
F992.33333333333337
sg9
F1
sg10
(lp1313
g12
(F-49
F-24
tRp1314
ag12
(F49
F-24
tRp1315
ag12
(F49
F24
tRp1316
ag12
(F-49
F24
tRp1317
asg17
F1000
sg18
g12
(F538.56237914070664
F340
tRp1318
sg20
F0
sa(dp1319
g8
F992.33333333333337
sg9
F1
sg10
(lp1320
g12
(F-24
F-49
tRp1321
ag12
(F24
F-49
tRp1322
ag12
(F24
F49
tRp1323
ag12
(F-24
F49
tRp1324
asg17
F1000
sg18
g12
(F533.99630514521527
F415
tRp1325
sg20
F0
sa(dp1326
g8
F992.33333333333337
sg9
F1
sg10
(lp1327
g12
(F-49
F-24
tRp1328
ag12
(F49
F-24
tRp1329
ag12
(F49
F24
tRp1330
ag12
(F-49
F24
tRp1331
asg17
F1000
sg18
g12
(F494.04571018560068
F490
tRp1332
sg20
F0
sasg70
(dp1333
g72
g12
(F0
F0
tRp1334
sg74
I10
ssa(dp1335
g5
(lp1336
(dp1337
g8
Finf
sg9
Finf
sg10
(lp1338
g12
(F-499
F-9
tRp1339
ag12
(F499
F-9
tRp1340
ag12
(F499
F9
tRp1341
ag12
(F-499
F9
tRp1342
asg17
F1000
sg18
g12
(F500
F5
tRp1343
sg20
F0
sa(dp1344
g8
F992.33333333333337
sg9
F1
sg10
(lp1345
g12
(F-49
F-24
tRp1346
ag12
(F49
F-24
tRp1347
ag12
(F49
F24
tRp1348
ag12
(F-49
F24
tRp1349
asg17
F1000
sg18
g12
(F500
F40
tRp1350
sg20
F0
sa(dp1351
g8
F992.33333333333337
sg9
F1
sg10
(lp1352
g12
(F-49
F-24
tRp1353
ag12
(F49
F-24
tRp1354
ag12
(F49
F24
tRp1355
ag12
(F-49
F24
tRp1356
asg17
F1000
sg18
g12
(F458.26061833019054
F90
tRp1357
sg20
F0
sa(dp1358
g8
F992.33333333333337
sg9
F1
sg10
(lp1359
g12
(F-24
F-49
tRp1360
ag12
(F24
F-49
tRp1361
ag12
(F24
F49
tRp1362
ag12
(F-24
F49
tRp1363
asg17
F1000
sg18
g12
(F462.80919922882492
F165
tRp1364
sg20
F0
sa(dp1365
g8
F992.33333333333337
sg9
F1
sg10
(lp1366
g12
(F-49
F-24
tRp1367
ag12
(F49
F-24
tRp1368
ag12
(F49
F24
tRp1369
ag12
(F-49
F24
tRp1370
asg17
F1000
sg18
g12
(F493.47645740079736
F240
tRp1371
sg20
F0
sa(dp1372
g8
F992.33333333333337
sg9
F1
sg10
(lp1373
g12
(F-49
F-24
tRp1374
ag12
(F49
F-24
tRp1375
ag12
(F49
F24
tRp1376
ag12
(F-49
F24
tRp1377
asg17
F1000
sg18
g12
(F513.9326957231325
F290
tRp1378
sg20
F0
sa(dp1379
g8
F992.33333333333337
sg9
F1
sg10
(lp1380
g12
(F-24
F-49
tRp1381
ag12
(F24
F-49
tRp1382
ag12
(F24
F49
tRp1383
ag12
(F-24
F49
tRp1384
asg17
F1000
sg18
g12
(F496.68308346194027
F365
tRp1385
sg20
F0
sa(dp1386
g8
F992.33333333333337
sg9
F1
sg10
(lp1387
g12
(F-24
F-49
tRp1388
ag12
(F24
F-49
tRp1389
ag12
(F24
F49
tRp1390
ag12
(F-24
F49
tRp1391
asg17
F1000
sg18
g12
(F518.37395318739595
F465
tRp1392
sg20
F0
sasg70
(dp1393
g72
g12
(F0
F0
tRp1394
sg74
I10
ssa(dp1395
g5
(lp1396
(dp1397
g8
Finf
sg9
Finf
sg10
(lp1398
g12
(F-499
F-9
tRp1399
ag12
(F499
F-9
tRp1400
ag12
(F499
F9
tRp1401
ag12
(F-499
F9
tRp1402
asg17
F1000
sg18
g12
(F500
F5
tRp1403
sg20
F0
sa(dp1404
g8
F992.33333333333337
sg9
F1
sg10
(lp1405
g12
(F-49
F-24
tRp1406
ag12
(F49
F-24
tRp1407
ag12
(F49
F24
tRp1408
ag12
(F-49
F24
tRp1409
asg17
F1000
sg18
g12
(F500
F40
tRp1410
sg20
F0
sa(dp1411
g8
F992.33333333333337
sg9
F1
sg10
(lp1412
g12
(F-24
F-49
tRp1413
ag12
(F24
F-49
tRp1414
ag12
(F24
F49
tRp1415
ag12
(F-24
F49
tRp1416
asg17
F1000
sg18
g12
(F486.11429119352925
F115
tRp1417
sg20
F0
sa(dp1418
g8
F992.33333333333337
sg9
F1
sg10
(lp1419
g12
(F-24
F-49
tRp1420
ag12
(F24
F-49
tRp1421
ag12
(F24
F49
tRp1422
ag12
(F-24
F49
tRp1423
asg17
F1000
sg18
g12
(F515.62202824803171
F215
tRp1424
sg20
F0
sa(dp1425
g8
F992.33333333333337
sg9
F1
sg10
(lp1426
g12
(F-49
F-24
tRp1427
ag12
(F49
F-24
tRp1428
ag12
(F49
F24
tRp1429
ag12
(F-49
F24
tRp1430
asg17
F1000
sg18
g12
(F512.02233574610443
F290
tRp1431
sg20
F0
sa(dp1432
g8
F992.33333333333337
sg9
F1
sg10
(lp1433
g12
(F-24
F-49
tRp1434
ag12
(F24
F-49
tRp1435
ag12
(F24
F49
tRp1436
ag12
(F-24
F49
tRp1437
asg17
F1000
sg18
g12
(F537.09532602868694
F365
tRp1438
sg20
F0
sa(dp1439
g8
F992.33333333333337
sg9
F1
sg10
(lp1440
g12
(F-24
F-49
tRp1441
ag12
(F24
F-49
tRp1442
ag12
(F24
F49
tRp1443
ag12
(F-24
F49
tRp1444
asg17
F1000
sg18
g12
(F531.68271434360361
F465
tRp1445
sg20
F0
sa(dp1446
g8
F992.33333333333337
sg9
F1
sg10
(lp1447
g12
(F-24
F-49
tRp1448
ag12
(F24
F-49
tRp1449
ag12
(F24
F49
tRp1450
ag12
(F-24
F49
tRp1451
asg17
F1000
sg18
g12
(F526.22855886323964
F565
tRp1452
sg20
F0
sasg70
(dp1453
g72
g12
(F0
F0
tRp1454
sg74
I10
ssa(dp1455
g5
(lp1456
(dp1457
g8
Finf
sg9
Finf
sg10
(lp1458
g12
(F-499
F-9
tRp1459
ag12
(F499
F-9
tRp1460
ag12
(F499
F9
tRp1461
ag12
(F-499
F9
tRp1462
asg17
F1000
sg18
g12
(F500
F5
tRp1463
sg20
F0
sa(dp1464
g8
F992.33333333333337
sg9
F1
sg10
(lp1465
g12
(F-49
F-24
tRp1466
ag12
(F49
F-24
tRp1467
ag12
(F49
F24
tRp1468
ag12
(F-49
F24
tRp1469
asg17
F1000
sg18
g12
(F500
F40
tRp1470
sg20
F0
sa(dp1471
g8
F992.33333333333337
sg9
F1
sg10
(lp1472
g12
(F-49
F-24
tRp1473
ag12
(F49
F-24
tRp1474
ag12
(F49
F24
tRp1475
ag12
(F-49
F24
tRp1476
asg17
F1000
sg18
g12
(F469.88164963482353
F90
tRp1477
sg20
F0
sa(dp1478
g8
F992.33333333333337
sg9
F1
sg10
(lp1479
g12
(F-49
F-24
tRp1480
ag12
(F49
F-24
tRp1481
ag12
(F49
F24
tRp1482
ag12
(F-49
F24
tRp1483
asg17
F1000
sg18
g12
(F449.9350957419523
F140
tRp1484
sg20
F0
sa(dp1485
g8
F992.33333333333337
sg9
F1
sg10
(lp1486
g12
(F-49
F-24
tRp1487
ag12
(F49
F-24
tRp1488
ag12
(F49
F24
tRp1489
ag12
(F-49
F24
tRp1490
asg17
F1000
sg18
g12
(F475.319226582233
F190
tRp1491
sg20
F0
sa(dp1492
g8
F992.33333333333337
sg9
F1
sg10
(lp1493
g12
(F-49
F-24
tRp1494
ag12
(F49
F-24
tRp1495
ag12
(F49
F24
tRp1496
ag12
(F-49
F24
tRp1497
asg17
F1000
sg18
g12
(F530.92717730367895
F240
tRp1498
sg20
F0
sa(dp1499
g8
F992.33333333333337
sg9
F1
sg10
(lp1500
g12
(F-49
F-24
tRp1501
ag12
(F49
F-24
tRp1502
ag12
(F49
F24
tRp1503
ag12
(F-49
F24
tRp1504
asg17
F1000
sg18
g12
(F466.95797592061984
F290
tRp1505
sg20
F0
sa(dp1506
g8
F992.33333333333337
sg9
F1
sg10
(lp1507
g12
(F-49
F-24
tRp1508
ag12
(F49
F-24
tRp1509
ag12
(F49
F24
tRp1510
ag12
(F-49
F24
tRp1511
asg17
F1000
sg18
g12
(F487.63242102207749
F340
tRp1512
sg20
F0
sasg70
(dp1513
g72
g12
(F0
F0
tRp1514
sg74
I10
ssa(dp1515
g5
(lp1516
(dp1517
g8
Finf
sg9
Finf
sg10
(lp1518
g12
(F-499
F-9
tRp1519
ag12
(F499
F-9
tRp1520
ag12
(F499
F9
tRp1521
ag12
(F-499
F9
tRp1522
asg17
F1000
sg18
g12
(F500
F5
tRp1523
sg20
F0
sa(dp1524
g8
F992.33333333333337
sg9
F1
sg10
(lp1525
g12
(F-49
F-24
tRp1526
ag12
(F49
F-24
tRp1527
ag12
(F49
F24
tRp1528
ag12
(F-49
F24
tRp1529
asg17
F1000
sg18
g12
(F500
F40
tRp1530
sg20
F0
sa(dp1531
g8
F992.33333333333337
sg9
F1
sg10
(lp1532
g12
(F-49
F-24
tRp1533
ag12
(F49
F-24
tRp1534
ag12
(F49
F24
tRp1535
ag12
(F-49
F24
tRp1536
asg17
F1000
sg18
g12
(F513.39326440239256
F90
tRp1537
sg20
F0
sa(dp1538
g8
F992.33333333333337
sg9
F1
sg10
(lp1539
g12
(F-24
F-49
tRp1540
ag12
(F24
F-49
tRp1541
ag12
(F24
F49
tRp1542
ag12
(F-24
F49
tRp1543
asg17
F1000
sg18
g12
(F564.48601630527855
F165
tRp1544
sg20
F0
sa(dp1545
g8
F992.33333333333337
sg9
F1
sg10
(lp1546
g12
(F-49
F-24
tRp1547
ag12
(F49
F-24
tRp1548
ag12
(F49
F24
tRp1549
ag12
(F-49
F24
tRp1550
asg17
F1000
sg18
g12
(F581.94751101115992
F240
tRp1551
sg20
F0
sa(dp1552
g8
F992.33333333333337
sg9
F1
sg10
(lp1553
g12
(F-49
F-24
tRp1554
ag12
(F49
F-24
tRp1555
ag12
(F49
F24
tRp1556
ag12
(F-49
F24
tRp1557
asg17
F1000
sg18
g12
(F612.63356982652829
F290
tRp1558
sg20
F0
sa(dp1559
g8
F992.33333333333337
sg9
F1
sg10
(lp1560
g12
(F-24
F-49
tRp1561
ag12
(F24
F-49
tRp1562
ag12
(F24
F49
tRp1563
ag12
(F-24
F49
tRp1564
asg17
F1000
sg18
g12
(F645.40220205421519
F365
tRp1565
sg20
F0
sa(dp1566
g8
F992.33333333333337
sg9
F1
sg10
(lp1567
g12
(F-49
F-24
tRp1568
ag12
(F49
F-24
tRp1569
ag12
(F49
F24
tRp1570
ag12
(F-49
F24
tRp1571
asg17
F1000
sg18
g12
(F633.12946491132982
F440
tRp1572
sg20
F0
sasg70
(dp1573
g72
g12
(F0
F0
tRp1574
sg74
I10
ssa(dp1575
g5
(lp1576
(dp1577
g8
Finf
sg9
Finf
sg10
(lp1578
g12
(F-499
F-9
tRp1579
ag12
(F499
F-9
tRp1580
ag12
(F499
F9
tRp1581
ag12
(F-499
F9
tRp1582
asg17
F1000
sg18
g12
(F500
F5
tRp1583
sg20
F0
sa(dp1584
g8
F992.33333333333337
sg9
F1
sg10
(lp1585
g12
(F-49
F-24
tRp1586
ag12
(F49
F-24
tRp1587
ag12
(F49
F24
tRp1588
ag12
(F-49
F24
tRp1589
asg17
F1000
sg18
g12
(F500
F40
tRp1590
sg20
F0
sa(dp1591
g8
F992.33333333333337
sg9
F1
sg10
(lp1592
g12
(F-24
F-49
tRp1593
ag12
(F24
F-49
tRp1594
ag12
(F24
F49
tRp1595
ag12
(F-24
F49
tRp1596
asg17
F1000
sg18
g12
(F489.46556497054343
F115
tRp1597
sg20
F0
sa(dp1598
g8
F992.33333333333337
sg9
F1
sg10
(lp1599
g12
(F-24
F-49
tRp1600
ag12
(F24
F-49
tRp1601
ag12
(F24
F49
tRp1602
ag12
(F-24
F49
tRp1603
asg17
F1000
sg18
g12
(F477.46938406863063
F215
tRp1604
sg20
F0
sa(dp1605
g8
F992.33333333333337
sg9
F1
sg10
(lp1606
g12
(F-24
F-49
tRp1607
ag12
(F24
F-49
tRp1608
ag12
(F24
F49
tRp1609
ag12
(F-24
F49
tRp1610
asg17
F1000
sg18
g12
(F472.93430294069537
F315
tRp1611
sg20
F0
sa(dp1612
g8
F992.33333333333337
sg9
F1
sg10
(lp1613
g12
(F-24
F-49
tRp1614
ag12
(F24
F-49
tRp1615
ag12
(F24
F49
tRp1616
ag12
(F-24
F49
tRp1617
asg17
F1000
sg18
g12
(F492.24155060664515
F415
tRp1618
sg20
F0
sa(dp1619
g8
F992.33333333333337
sg9
F1
sg10
(lp1620
g12
(F-49
F-24
tRp1621
ag12
(F49
F-24
tRp1622
ag12
(F49
F24
tRp1623
ag12
(F-49
F24
tRp1624
asg17
F1000
sg18
g12
(F481.46010716649704
F490
tRp1625
sg20
F0
sa(dp1626
g8
F992.33333333333337
sg9
F1
sg10
(lp1627
g12
(F-24
F-49
tRp1628
ag12
(F24
F-49
tRp1629
ag12
(F24
F49
tRp1630
ag12
(F-24
F49
tRp1631
asg17
F1000
sg18
g12
(F445.57467849323416
F565
tRp1632
sg20
F0
sasg70
(dp1633
g72
g12
(F0
F0
tRp1634
sg74
I10
ssa(dp1635
g5
(lp1636
(dp1637
g8
Finf
sg9
Finf
sg10
(lp1638
g12
(F-499
F-9
tRp1639
ag12
(F499
F-9
tRp1640
ag12
(F499
F9
tRp1641
ag12
(F-499
F9
tRp1642
asg17
F1000
sg18
g12
(F500
F5
tRp1643
sg20
F0
sa(dp1644
g8
F992.33333333333337
sg9
F1
sg10
(lp1645
g12
(F-49
F-24
tRp1646
ag12
(F49
F-24
tRp1647
ag12
(F49
F24
tRp1648
ag12
(F-49
F24
tRp1649
asg17
F1000
sg18
g12
(F500
F40
tRp1650
sg20
F0
sa(dp1651
g8
F992.33333333333337
sg9
F1
sg10
(lp1652
g12
(F-24
F-49
tRp1653
ag12
(F24
F-49
tRp1654
ag12
(F24
F49
tRp1655
ag12
(F-24
F49
tRp1656
asg17
F1000
sg18
g12
(F540.53590459645477
F115
tRp1657
sg20
F0
sa(dp1658
g8
F992.33333333333337
sg9
F1
sg10
(lp1659
g12
(F-49
F-24
tRp1660
ag12
(F49
F-24
tRp1661
ag12
(F49
F24
tRp1662
ag12
(F-49
F24
tRp1663
asg17
F1000
sg18
g12
(F512.17220844859708
F190
tRp1664
sg20
F0
sa(dp1665
g8
F992.33333333333337
sg9
F1
sg10
(lp1666
g12
(F-49
F-24
tRp1667
ag12
(F49
F-24
tRp1668
ag12
(F49
F24
tRp1669
ag12
(F-49
F24
tRp1670
asg17
F1000
sg18
g12
(F581.31189437815112
F240
tRp1671
sg20
F0
sa(dp1672
g8
F992.33333333333337
sg9
F1
sg10
(lp1673
g12
(F-24
F-49
tRp1674
ag12
(F24
F-49
tRp1675
ag12
(F24
F49
tRp1676
ag12
(F-24
F49
tRp1677
asg17
F1000
sg18
g12
(F603.11256990449431
F315
tRp1678
sg20
F0
sa(dp1679
g8
F992.33333333333337
sg9
F1
sg10
(lp1680
g12
(F-49
F-24
tRp1681
ag12
(F49
F-24
tRp1682
ag12
(F49
F24
tRp1683
ag12
(F-49
F24
tRp1684
asg17
F1000
sg18
g12
(F599.75804681415593
F390
tRp1685
sg20
F0
sa(dp1686
g8
F992.33333333333337
sg9
F1
sg10
(lp1687
g12
(F-24
F-49
tRp1688
ag12
(F24
F-49
tRp1689
ag12
(F24
F49
tRp1690
ag12
(F-24
F49
tRp1691
asg17
F1000
sg18
g12
(F638.6768248664514
F465
tRp1692
sg20
F0
sasg70
(dp1693
g72
g12
(F0
F0
tRp1694
sg74
I10
ssa(dp1695
g5
(lp1696
(dp1697
g8
Finf
sg9
Finf
sg10
(lp1698
g12
(F-499
F-9
tRp1699
ag12
(F499
F-9
tRp1700
ag12
(F499
F9
tRp1701
ag12
(F-499
F9
tRp1702
asg17
F1000
sg18
g12
(F500
F5
tRp1703
sg20
F0
sa(dp1704
g8
F992.33333333333337
sg9
F1
sg10
(lp1705
g12
(F-49
F-24
tRp1706
ag12
(F49
F-24
tRp1707
ag12
(F49
F24
tRp1708
ag12
(F-49
F24
tRp1709
asg17
F1000
sg18
g12
(F500
F40
tRp1710
sg20
F0
sa(dp1711
g8
F992.33333333333337
sg9
F1
sg10
(lp1712
g12
(F-49
F-24
tRp1713
ag12
(F49
F-24
tRp1714
ag12
(F49
F24
tRp1715
ag12
(F-49
F24
tRp1716
asg17
F1000
sg18
g12
(F482.27871880286335
F90
tRp1717
sg20
F0
sa(dp1718
g8
F992.33333333333337
sg9
F1
sg10
(lp1719
g12
(F-24
F-49
tRp1720
ag12
(F24
F-49
tRp1721
ag12
(F24
F49
tRp1722
ag12
(F-24
F49
tRp1723
asg17
F1000
sg18
g12
(F487.44523937337158
F165
tRp1724
sg20
F0
sa(dp1725
g8
F992.33333333333337
sg9
F1
sg10
(lp1726
g12
(F-49
F-24
tRp1727
ag12
(F49
F-24
tRp1728
ag12
(F49
F24
tRp1729
ag12
(F-49
F24
tRp1730
asg17
F1000
sg18
g12
(F473.53272639430907
F240
tRp1731
sg20
F0
sa(dp1732
g8
F992.33333333333337
sg9
F1
sg10
(lp1733
g12
(F-24
F-49
tRp1734
ag12
(F24
F-49
tRp1735
ag12
(F24
F49
tRp1736
ag12
(F-24
F49
tRp1737
asg17
F1000
sg18
g12
(F493.82370335805712
F315
tRp1738
sg20
F0
sa(dp1739
g8
F992.33333333333337
sg9
F1
sg10
(lp1740
g12
(F-24
F-49
tRp1741
ag12
(F24
F-49
tRp1742
ag12
(F24
F49
tRp1743
ag12
(F-24
F49
tRp1744
asg17
F1000
sg18
g12
(F480.54782336697269
F415
tRp1745
sg20
F0
sa(dp1746
g8
F992.33333333333337
sg9
F1
sg10
(lp1747
g12
(F-49
F-24
tRp1748
ag12
(F49
F-24
tRp1749
ag12
(F49
F24
tRp1750
ag12
(F-49
F24
tRp1751
asg17
F1000
sg18
g12
(F489.23516259846247
F490
tRp1752
sg20
F0
sasg70
(dp1753
g72
g12
(F0
F0
tRp1754
sg74
I10
ssa(dp1755
g5
(lp1756
(dp1757
g8
Finf
sg9
Finf
sg10
(lp1758
g12
(F-499
F-9
tRp1759
ag12
(F499
F-9
tRp1760
ag12
(F499
F9
tRp1761
ag12
(F-499
F9
tRp1762
asg17
F1000
sg18
g12
(F500
F5
tRp1763
sg20
F0
sa(dp1764
g8
F992.33333333333337
sg9
F1
sg10
(lp1765
g12
(F-49
F-24
tRp1766
ag12
(F49
F-24
tRp1767
ag12
(F49
F24
tRp1768
ag12
(F-49
F24
tRp1769
asg17
F1000
sg18
g12
(F500
F40
tRp1770
sg20
F0
sa(dp1771
g8
F992.33333333333337
sg9
F1
sg10
(lp1772
g12
(F-49
F-24
tRp1773
ag12
(F49
F-24
tRp1774
ag12
(F49
F24
tRp1775
ag12
(F-49
F24
tRp1776
asg17
F1000
sg18
g12
(F506.643458363332
F90
tRp1777
sg20
F0
sa(dp1778
g8
F992.33333333333337
sg9
F1
sg10
(lp1779
g12
(F-49
F-24
tRp1780
ag12
(F49
F-24
tRp1781
ag12
(F49
F24
tRp1782
ag12
(F-49
F24
tRp1783
asg17
F1000
sg18
g12
(F578.16873208156471
F140
tRp1784
sg20
F0
sa(dp1785
g8
F992.33333333333337
sg9
F1
sg10
(lp1786
g12
(F-24
F-49
tRp1787
ag12
(F24
F-49
tRp1788
ag12
(F24
F49
tRp1789
ag12
(F-24
F49
tRp1790
asg17
F1000
sg18
g12
(F594.54503727457848
F215
tRp1791
sg20
F0
sa(dp1792
g8
F992.33333333333337
sg9
F1
sg10
(lp1793
g12
(F-49
F-24
tRp1794
ag12
(F49
F-24
tRp1795
ag12
(F49
F24
tRp1796
ag12
(F-49
F24
tRp1797
asg17
F1000
sg18
g12
(F608.17843072929759
F290
tRp1798
sg20
F0
sa(dp1799
g8
F992.33333333333337
sg9
F1
sg10
(lp1800
g12
(F-49
F-24
tRp1801
ag12
(F49
F-24
tRp1802
ag12
(F49
F24
tRp1803
ag12
(F-49
F24
tRp1804
asg17
F1000
sg18
g12
(F617.97513925118028
F340
tRp1805
sg20
F0
sa(dp1806
g8
F992.33333333333337
sg9
F1
sg10
(lp1807
g12
(F-24
F-49
tRp1808
ag12
(F24
F-49
tRp1809
ag12
(F24
F49
tRp1810
ag12
(F-24
F49
tRp1811
asg17
F1000
sg18
g12
(F623.76720816171201
F415
tRp1812
sg20
F0
sasg70
(dp1813
g72
g12
(F0
F0
tRp1814
sg74
I10
ssa(dp1815
g5
(lp1816
(dp1817
g8
Finf
sg9
Finf
sg10
(lp1818
g12
(F-499
F-9
tRp1819
ag12
(F499
F-9
tRp1820
ag12
(F499
F9
tRp1821
ag12
(F-499
F9
tRp1822
asg17
F1000
sg18
g12
(F500
F5
tRp1823
sg20
F0
sa(dp1824
g8
F992.33333333333337
sg9
F1
sg10
(lp1825
g12
(F-49
F-24
tRp1826
ag12
(F49
F-24
tRp1827
ag12
(F49
F24
tRp1828
ag12
(F-49
F24
tRp1829
asg17
F1000
sg18
g12
(F500
F40
tRp1830
sg20
F0
sa(dp1831
g8
F992.33333333333337
sg9
F1
sg10
(lp1832
g12
(F-49
F-24
tRp1833
ag12
(F49
F-24
tRp1834
ag12
(F49
F24
tRp1835
ag12
(F-49
F24
tRp1836
asg17
F1000
sg18
g12
(F433.63128375329381
F90
tRp1837
sg20
F0
sa(dp1838
g8
F992.33333333333337
sg9
F1
sg10
(lp1839
g12
(F-49
F-24
tRp1840
ag12
(F49
F-24
tRp1841
ag12
(F49
F24
tRp1842
ag12
(F-49
F24
tRp1843
asg17
F1000
sg18
g12
(F463.478533463671
F140
tRp1844
sg20
F0
sa(dp1845
g8
F992.33333333333337
sg9
F1
sg10
(lp1846
g12
(F-49
F-24
tRp1847
ag12
(F49
F-24
tRp1848
ag12
(F49
F24
tRp1849
ag12
(F-49
F24
tRp1850
asg17
F1000
sg18
g12
(F443.78428005543594
F190
tRp1851
sg20
F0
sa(dp1852
g8
F992.33333333333337
sg9
F1
sg10
(lp1853
g12
(F-24
F-49
tRp1854
ag12
(F24
F-49
tRp1855
ag12
(F24
F49
tRp1856
ag12
(F-24
F49
tRp1857
asg17
F1000
sg18
g12
(F482.21421069149858
F265
tRp1858
sg20
F0
sa(dp1859
g8
F992.33333333333337
sg9
F1
sg10
(lp1860
g12
(F-49
F-24
tRp1861
ag12
(F49
F-24
tRp1862
ag12
(F49
F24
tRp1863
ag12
(F-49
F24
tRp1864
asg17
F1000
sg18
g12
(F499.10612356808809
F340
tRp1865
sg20
F0
sa(dp1866
g8
F992.33333333333337
sg9
F1
sg10
(lp1867
g12
(F-24
F-49
tRp1868
ag12
(F24
F-49
tRp1869
ag12
(F24
F49
tRp1870
ag12
(F-24
F49
tRp1871
asg17
F1000
sg18
g12
(F536.41592450591975
F415
tRp1872
sg20
F0
sasg70
(dp1873
g72
g12
(F0
F0
tRp1874
sg74
I10
ssa(dp1875
g5
(lp1876
(dp1877
g8
Finf
sg9
Finf
sg10
(lp1878
g12
(F-499
F-9
tRp1879
ag12
(F499
F-9
tRp1880
ag12
(F499
F9
tRp1881
ag12
(F-499
F9
tRp1882
asg17
F1000
sg18
g12
(F500
F5
tRp1883
sg20
F0
sa(dp1884
g8
F992.33333333333337
sg9
F1
sg10
(lp1885
g12
(F-49
F-24
tRp1886
ag12
(F49
F-24
tRp1887
ag12
(F49
F24
tRp1888
ag12
(F-49
F24
tRp1889
asg17
F1000
sg18
g12
(F500
F40
tRp1890
sg20
F0
sa(dp1891
g8
F992.33333333333337
sg9
F1
sg10
(lp1892
g12
(F-24
F-49
tRp1893
ag12
(F24
F-49
tRp1894
ag12
(F24
F49
tRp1895
ag12
(F-24
F49
tRp1896
asg17
F1000
sg18
g12
(F469.90370663782761
F115
tRp1897
sg20
F0
sa(dp1898
g8
F992.33333333333337
sg9
F1
sg10
(lp1899
g12
(F-49
F-24
tRp1900
ag12
(F49
F-24
tRp1901
ag12
(F49
F24
tRp1902
ag12
(F-49
F24
tRp1903
asg17
F1000
sg18
g12
(F463.08458813460783
F190
tRp1904
sg20
F0
sa(dp1905
g8
F992.33333333333337
sg9
F1
sg10
(lp1906
g12
(F-49
F-24
tRp1907
ag12
(F49
F-24
tRp1908
ag12
(F49
F24
tRp1909
ag12
(F-49
F24
tRp1910
asg17
F1000
sg18
g12
(F508.42222248426577
F240
tRp1911
sg20
F0
sa(dp1912
g8
F992.33333333333337
sg9
F1
sg10
(lp1913
g12
(F-24
F-49
tRp1914
ag12
(F24
F-49
tRp1915
ag12
(F24
F49
tRp1916
ag12
(F-24
F49
tRp1917
asg17
F1000
sg18
g12
(F521.1941966463271
F315
tRp1918
sg20
F0
sa(dp1919
g8
F992.33333333333337
sg9
F1
sg10
(lp1920
g12
(F-49
F-24
tRp1921
ag12
(F49
F-24
tRp1922
ag12
(F49
F24
tRp1923
ag12
(F-49
F24
tRp1924
asg17
F1000
sg18
g12
(F526.54272974840637
F390
tRp1925
sg20
F0
sa(dp1926
g8
F992.33333333333337
sg9
F1
sg10
(lp1927
g12
(F-24
F-49
tRp1928
ag12
(F24
F-49
tRp1929
ag12
(F24
F49
tRp1930
ag12
(F-24
F49
tRp1931
asg17
F1000
sg18
g12
(F548.76040688065291
F465
tRp1932
sg20
F0
sasg70
(dp1933
g72
g12
(F0
F0
tRp1934
sg74
I10
ssa(dp1935
g5
(lp1936
(dp1937
g8
Finf
sg9
Finf
sg10
(lp1938
g12
(F-499
F-9
tRp1939
ag12
(F499
F-9
tRp1940
ag12
(F499
F9
tRp1941
ag12
(F-499
F9
tRp1942
asg17
F1000
sg18
g12
(F500
F5
tRp1943
sg20
F0
sa(dp1944
g8
F992.33333333333337
sg9
F1
sg10
(lp1945
g12
(F-49
F-24
tRp1946
ag12
(F49
F-24
tRp1947
ag12
(F49
F24
tRp1948
ag12
(F-49
F24
tRp1949
asg17
F1000
sg18
g12
(F500
F40
tRp1950
sg20
F0
sa(dp1951
g8
F992.33333333333337
sg9
F1
sg10
(lp1952
g12
(F-49
F-24
tRp1953
ag12
(F49
F-24
tRp1954
ag12
(F49
F24
tRp1955
ag12
(F-49
F24
tRp1956
asg17
F1000
sg18
g12
(F451.69966696553826
F90
tRp1957
sg20
F0
sa(dp1958
g8
F992.33333333333337
sg9
F1
sg10
(lp1959
g12
(F-24
F-49
tRp1960
ag12
(F24
F-49
tRp1961
ag12
(F24
F49
tRp1962
ag12
(F-24
F49
tRp1963
asg17
F1000
sg18
g12
(F439.59002251022036
F165
tRp1964
sg20
F0
sa(dp1965
g8
F992.33333333333337
sg9
F1
sg10
(lp1966
g12
(F-49
F-24
tRp1967
ag12
(F49
F-24
tRp1968
ag12
(F49
F24
tRp1969
ag12
(F-49
F24
tRp1970
asg17
F1000
sg18
g12
(F450.72964852673368
F240
tRp1971
sg20
F0
sa(dp1972
g8
F992.33333333333337
sg9
F1
sg10
(lp1973
g12
(F-49
F-24
tRp1974
ag12
(F49
F-24
tRp1975
ag12
(F49
F24
tRp1976
ag12
(F-49
F24
tRp1977
asg17
F1000
sg18
g12
(F452.58691594684382
F290
tRp1978
sg20
F0
sa(dp1979
g8
F992.33333333333337
sg9
F1
sg10
(lp1980
g12
(F-24
F-49
tRp1981
ag12
(F24
F-49
tRp1982
ag12
(F24
F49
tRp1983
ag12
(F-24
F49
tRp1984
asg17
F1000
sg18
g12
(F431.5079010370323
F365
tRp1985
sg20
F0
sa(dp1986
g8
F992.33333333333337
sg9
F1
sg10
(lp1987
g12
(F-49
F-24
tRp1988
ag12
(F49
F-24
tRp1989
ag12
(F49
F24
tRp1990
ag12
(F-49
F24
tRp1991
asg17
F1000
sg18
g12
(F445.61296499357064
F440
tRp1992
sg20
F0
sasg70
(dp1993
g72
g12
(F0
F0
tRp1994
sg74
I10
ssa(dp1995
g5
(lp1996
(dp1997
g8
Finf
sg9
Finf
sg10
(lp1998
g12
(F-499
F-9
tRp1999
ag12
(F499
F-9
tRp2000
ag12
(F499
F9
tRp2001
ag12
(F-499
F9
tRp2002
asg17
F1000
sg18
g12
(F500
F5
tRp2003
sg20
F0
sa(dp2004
g8
F992.33333333333337
sg9
F1
sg10
(lp2005
g12
(F-49
F-24
tRp2006
ag12
(F49
F-24
tRp2007
ag12
(F49
F24
tRp2008
ag12
(F-49
F24
tRp2009
asg17
F1000
sg18
g12
(F500
F40
tRp2010
sg20
F0
sa(dp2011
g8
F992.33333333333337
sg9
F1
sg10
(lp2012
g12
(F-24
F-49
tRp2013
ag12
(F24
F-49
tRp2014
ag12
(F24
F49
tRp2015
ag12
(F-24
F49
tRp2016
asg17
F1000
sg18
g12
(F494.50647687004022
F115
tRp2017
sg20
F0
sa(dp2018
g8
F992.33333333333337
sg9
F1
sg10
(lp2019
g12
(F-24
F-49
tRp2020
ag12
(F24
F-49
tRp2021
ag12
(F24
F49
tRp2022
ag12
(F-24
F49
tRp2023
asg17
F1000
sg18
g12
(F514.15618252558988
F215
tRp2024
sg20
F0
sa(dp2025
g8
F992.33333333333337
sg9
F1
sg10
(lp2026
g12
(F-24
F-49
tRp2027
ag12
(F24
F-49
tRp2028
ag12
(F24
F49
tRp2029
ag12
(F-24
F49
tRp2030
asg17
F1000
sg18
g12
(F488.28517234177565
F315
tRp2031
sg20
F0
sa(dp2032
g8
F992.33333333333337
sg9
F1
sg10
(lp2033
g12
(F-49
F-24
tRp2034
ag12
(F49
F-24
tRp2035
ag12
(F49
F24
tRp2036
ag12
(F-49
F24
tRp2037
asg17
F1000
sg18
g12
(F477.32435338062504
F390
tRp2038
sg20
F0
sa(dp2039
g8
F992.33333333333337
sg9
F1
sg10
(lp2040
g12
(F-49
F-24
tRp2041
ag12
(F49
F-24
tRp2042
ag12
(F49
F24
tRp2043
ag12
(F-49
F24
tRp2044
asg17
F1000
sg18
g12
(F463.70937195673559
F440
tRp2045
sg20
F0
sa(dp2046
g8
F992.33333333333337
sg9
F1
sg10
(lp2047
g12
(F-24
F-49
tRp2048
ag12
(F24
F-49
tRp2049
ag12
(F24
F49
tRp2050
ag12
(F-24
F49
tRp2051
asg17
F1000
sg18
g12
(F479.58111996895872
F515
tRp2052
sg20
F0
sasg70
(dp2053
g72
g12
(F0
F0
tRp2054
sg74
I10
ssa(dp2055
g5
(lp2056
(dp2057
g8
Finf
sg9
Finf
sg10
(lp2058
g12
(F-499
F-9
tRp2059
ag12
(F499
F-9
tRp2060
ag12
(F499
F9
tRp2061
ag12
(F-499
F9
tRp2062
asg17
F1000
sg18
g12
(F500
F5
tRp2063
sg20
F0
sa(dp2064
g8
F992.33333333333337
sg9
F1
sg10
(lp2065
g12
(F-49
F-24
tRp2066
ag12
(F49
F-24
tRp2067
ag12
(F49
F24
tRp2068
ag12
(F-49
F24
tRp2069
asg17
F1000
sg18
g12
(F500
F40
tRp2070
sg20
F0
sa(dp2071
g8
F992.33333333333337
sg9
F1
sg10
(lp2072
g12
(F-49
F-24
tRp2073
ag12
(F49
F-24
tRp2074
ag12
(F49
F24
tRp2075
ag12
(F-49
F24
tRp2076
asg17
F1000
sg18
g12
(F496.22968707579093
F90
tRp2077
sg20
F0
sa(dp2078
g8
F992.33333333333337
sg9
F1
sg10
(lp2079
g12
(F-49
F-24
tRp2080
ag12
(F49
F-24
tRp2081
ag12
(F49
F24
tRp2082
ag12
(F-49
F24
tRp2083
asg17
F1000
sg18
g12
(F503.38955240664882
F140
tRp2084
sg20
F0
sa(dp2085
g8
F992.33333333333337
sg9
F1
sg10
(lp2086
g12
(F-49
F-24
tRp2087
ag12
(F49
F-24
tRp2088
ag12
(F49
F24
tRp2089
ag12
(F-49
F24
tRp2090
asg17
F1000
sg18
g12
(F552.63296854341456
F190
tRp2091
sg20
F0
sa(dp2092
g8
F992.33333333333337
sg9
F1
sg10
(lp2093
g12
(F-49
F-24
tRp2094
ag12
(F49
F-24
tRp2095
ag12
(F49
F24
tRp2096
ag12
(F-49
F24
tRp2097
asg17
F1000
sg18
g12
(F511.59031549164877
F240
tRp2098
sg20
F0
sa(dp2099
g8
F992.33333333333337
sg9
F1
sg10
(lp2100
g12
(F-49
F-24
tRp2101
ag12
(F49
F-24
tRp2102
ag12
(F49
F24
tRp2103
ag12
(F-49
F24
tRp2104
asg17
F1000
sg18
g12
(F560.9771470811886
F290
tRp2105
sg20
F0
sa(dp2106
g8
F992.33333333333337
sg9
F1
sg10
(lp2107
g12
(F-24
F-49
tRp2108
ag12
(F24
F-49
tRp2109
ag12
(F24
F49
tRp2110
ag12
(F-24
F49
tRp2111
asg17
F1000
sg18
g12
(F569.55198795754245
F365
tRp2112
sg20
F0
sasg70
(dp2113
g72
g12
(F0
F0
tRp2114
sg74
I10
ssa(dp2115
g5
(lp2116
(dp2117
g8
Finf
sg9
Finf
sg10
(lp2118
g12
(F-499
F-9
tRp2119
ag12
(F499
F-9
tRp2120
ag12
(F499
F9
tRp2121
ag12
(F-499
F9
tRp2122
asg17
F1000
sg18
g12
(F500
F5
tRp2123
sg20
F0
sa(dp2124
g8
F992.33333333333337
sg9
F1
sg10
(lp2125
g12
(F-49
F-24
tRp2126
ag12
(F49
F-24
tRp2127
ag12
(F49
F24
tRp2128
ag12
(F-49
F24
tRp2129
asg17
F1000
sg18
g12
(F500
F40
tRp2130
sg20
F0
sa(dp2131
g8
F992.33333333333337
sg9
F1
sg10
(lp2132
g12
(F-49
F-24
tRp2133
ag12
(F49
F-24
tRp2134
ag12
(F49
F24
tRp2135
ag12
(F-49
F24
tRp2136
asg17
F1000
sg18
g12
(F533.11047978436318
F90
tRp2137
sg20
F0
sa(dp2138
g8
F992.33333333333337
sg9
F1
sg10
(lp2139
g12
(F-49
F-24
tRp2140
ag12
(F49
F-24
tRp2141
ag12
(F49
F24
tRp2142
ag12
(F-49
F24
tRp2143
asg17
F1000
sg18
g12
(F552.19253479690974
F140
tRp2144
sg20
F0
sa(dp2145
g8
F992.33333333333337
sg9
F1
sg10
(lp2146
g12
(F-49
F-24
tRp2147
ag12
(F49
F-24
tRp2148
ag12
(F49
F24
tRp2149
ag12
(F-49
F24
tRp2150
asg17
F1000
sg18
g12
(F535.49093094124407
F190
tRp2151
sg20
F0
sa(dp2152
g8
F992.33333333333337
sg9
F1
sg10
(lp2153
g12
(F-24
F-49
tRp2154
ag12
(F24
F-49
tRp2155
ag12
(F24
F49
tRp2156
ag12
(F-24
F49
tRp2157
asg17
F1000
sg18
g12
(F515.29767550102713
F265
tRp2158
sg20
F0
sa(dp2159
g8
F992.33333333333337
sg9
F1
sg10
(lp2160
g12
(F-49
F-24
tRp2161
ag12
(F49
F-24
tRp2162
ag12
(F49
F24
tRp2163
ag12
(F-49
F24
tRp2164
asg17
F1000
sg18
g12
(F510.13724940433184
F340
tRp2165
sg20
F0
sa(dp2166
g8
F992.33333333333337
sg9
F1
sg10
(lp2167
g12
(F-49
F-24
tRp2168
ag12
(F49
F-24
tRp2169
ag12
(F49
F24
tRp2170
ag12
(F-49
F24
tRp2171
asg17
F1000
sg18
g12
(F499.34349286129833
F390
tRp2172
sg20
F0
sasg70
(dp2173
g72
g12
(F0
F0
tRp2174
sg74
I10
ssa(dp2175
g5
(lp2176
(dp2177
g8
Finf
sg9
Finf
sg10
(lp2178
g12
(F-499
F-9
tRp2179
ag12
(F499
F-9
tRp2180
ag12
(F499
F9
tRp2181
ag12
(F-499
F9
tRp2182
asg17
F1000
sg18
g12
(F500
F5
tRp2183
sg20
F0
sa(dp2184
g8
F992.33333333333337
sg9
F1
sg10
(lp2185
g12
(F-49
F-24
tRp2186
ag12
(F49
F-24
tRp2187
ag12
(F49
F24
tRp2188
ag12
(F-49
F24
tRp2189
asg17
F1000
sg18
g12
(F500
F40
tRp2190
sg20
F0
sa(dp2191
g8
F992.33333333333337
sg9
F1
sg10
(lp2192
g12
(F-49
F-24
tRp2193
ag12
(F49
F-24
tRp2194
ag12
(F49
F24
tRp2195
ag12
(F-49
F24
tRp2196
asg17
F1000
sg18
g12
(F494.19758331992421
F90
tRp2197
sg20
F0
sa(dp2198
g8
F992.33333333333337
sg9
F1
sg10
(lp2199
g12
(F-24
F-49
tRp2200
ag12
(F24
F-49
tRp2201
ag12
(F24
F49
tRp2202
ag12
(F-24
F49
tRp2203
asg17
F1000
sg18
g12
(F533.75943226936363
F165
tRp2204
sg20
F0
sa(dp2205
g8
F992.33333333333337
sg9
F1
sg10
(lp2206
g12
(F-49
F-24
tRp2207
ag12
(F49
F-24
tRp2208
ag12
(F49
F24
tRp2209
ag12
(F-49
F24
tRp2210
asg17
F1000
sg18
g12
(F498.3131400785814
F240
tRp2211
sg20
F0
sa(dp2212
g8
F992.33333333333337
sg9
F1
sg10
(lp2213
g12
(F-49
F-24
tRp2214
ag12
(F49
F-24
tRp2215
ag12
(F49
F24
tRp2216
ag12
(F-49
F24
tRp2217
asg17
F1000
sg18
g12
(F531.34818668056698
F290
tRp2218
sg20
F0
sa(dp2219
g8
F992.33333333333337
sg9
F1
sg10
(lp2220
g12
(F-49
F-24
tRp2221
ag12
(F49
F-24
tRp2222
ag12
(F49
F24
tRp2223
ag12
(F-49
F24
tRp2224
asg17
F1000
sg18
g12
(F531.43108649717328
F340
tRp2225
sg20
F0
sa(dp2226
g8
F992.33333333333337
sg9
F1
sg10
(lp2227
g12
(F-24
F-49
tRp2228
ag12
(F24
F-49
tRp2229
ag12
(F24
F49
tRp2230
ag12
(F-24
F49
tRp2231
asg17
F1000
sg18
g12
(F510.50825278884207
F415
tRp2232
sg20
F0
sasg70
(dp2233
g72
g12
(F0
F0
tRp2234
sg74
I10
ssa(dp2235
g5
(lp2236
(dp2237
g8
Finf
sg9
Finf
sg10
(lp2238
g12
(F-499
F-9
tRp2239
ag12
(F499
F-9
tRp2240
ag12
(F499
F9
tRp2241
ag12
(F-499
F9
tRp2242
asg17
F1000
sg18
g12
(F500
F5
tRp2243
sg20
F0
sa(dp2244
g8
F992.33333333333337
sg9
F1
sg10
(lp2245
g12
(F-49
F-24
tRp2246
ag12
(F49
F-24
tRp2247
ag12
(F49
F24
tRp2248
ag12
(F-49
F24
tRp2249
asg17
F1000
sg18
g12
(F500
F40
tRp2250
sg20
F0
sa(dp2251
g8
F992.33333333333337
sg9
F1
sg10
(lp2252
g12
(F-24
F-49
tRp2253
ag12
(F24
F-49
tRp2254
ag12
(F24
F49
tRp2255
ag12
(F-24
F49
tRp2256
asg17
F1000
sg18
g12
(F469.16215422135616
F115
tRp2257
sg20
F0
sa(dp2258
g8
F992.33333333333337
sg9
F1
sg10
(lp2259
g12
(F-24
F-49
tRp2260
ag12
(F24
F-49
tRp2261
ag12
(F24
F49
tRp2262
ag12
(F-24
F49
tRp2263
asg17
F1000
sg18
g12
(F464.3638635417048
F215
tRp2264
sg20
F0
sa(dp2265
g8
F992.33333333333337
sg9
F1
sg10
(lp2266
g12
(F-24
F-49
tRp2267
ag12
(F24
F-49
tRp2268
ag12
(F24
F49
tRp2269
ag12
(F-24
F49
tRp2270
asg17
F1000
sg18
g12
(F445.82951474110916
F315
tRp2271
sg20
F0
sa(dp2272
g8
F992.33333333333337
sg9
F1
sg10
(lp2273
g12
(F-49
F-24
tRp2274
ag12
(F49
F-24
tRp2275
ag12
(F49
F24
tRp2276
ag12
(F-49
F24
tRp2277
asg17
F1000
sg18
g12
(F459.83629080901403
F390
tRp2278
sg20
F0
sa(dp2279
g8
F992.33333333333337
sg9
F1
sg10
(lp2280
g12
(F-49
F-24
tRp2281
ag12
(F49
F-24
tRp2282
ag12
(F49
F24
tRp2283
ag12
(F-49
F24
tRp2284
asg17
F1000
sg18
g12
(F516.36483377963805
F440
tRp2285
sg20
F0
sa(dp2286
g8
F992.33333333333337
sg9
F1
sg10
(lp2287
g12
(F-49
F-24
tRp2288
ag12
(F49
F-24
tRp2289
ag12
(F49
F24
tRp2290
ag12
(F-49
F24
tRp2291
asg17
F1000
sg18
g12
(F515.79806744967379
F490
tRp2292
sg20
F0
sasg70
(dp2293
g72
g12
(F0
F0
tRp2294
sg74
I10
ssa(dp2295
g5
(lp2296
(dp2297
g8
Finf
sg9
Finf
sg10
(lp2298
g12
(F-499
F-9
tRp2299
ag12
(F499
F-9
tRp2300
ag12
(F499
F9
tRp2301
ag12
(F-499
F9
tRp2302
asg17
F1000
sg18
g12
(F500
F5
tRp2303
sg20
F0
sa(dp2304
g8
F992.33333333333337
sg9
F1
sg10
(lp2305
g12
(F-49
F-24
tRp2306
ag12
(F49
F-24
tRp2307
ag12
(F49
F24
tRp2308
ag12
(F-49
F24
tRp2309
asg17
F1000
sg18
g12
(F500
F40
tRp2310
sg20
F0
sa(dp2311
g8
F992.33333333333337
sg9
F1
sg10
(lp2312
g12
(F-24
F-49
tRp2313
ag12
(F24
F-49
tRp2314
ag12
(F24
F49
tRp2315
ag12
(F-24
F49
tRp2316
asg17
F1000
sg18
g12
(F477.51192334396455
F115
tRp2317
sg20
F0
sa(dp2318
g8
F992.33333333333337
sg9
F1
sg10
(lp2319
g12
(F-24
F-49
tRp2320
ag12
(F24
F-49
tRp2321
ag12
(F24
F49
tRp2322
ag12
(F-24
F49
tRp2323
asg17
F1000
sg18
g12
(F502.86768747970007
F215
tRp2324
sg20
F0
sa(dp2325
g8
F992.33333333333337
sg9
F1
sg10
(lp2326
g12
(F-49
F-24
tRp2327
ag12
(F49
F-24
tRp2328
ag12
(F49
F24
tRp2329
ag12
(F-49
F24
tRp2330
asg17
F1000
sg18
g12
(F531.90344064786177
F290
tRp2331
sg20
F0
sa(dp2332
g8
F992.33333333333337
sg9
F1
sg10
(lp2333
g12
(F-24
F-49
tRp2334
ag12
(F24
F-49
tRp2335
ag12
(F24
F49
tRp2336
ag12
(F-24
F49
tRp2337
asg17
F1000
sg18
g12
(F541.50398194427225
F365
tRp2338
sg20
F0
sa(dp2339
g8
F992.33333333333337
sg9
F1
sg10
(lp2340
g12
(F-24
F-49
tRp2341
ag12
(F24
F-49
tRp2342
ag12
(F24
F49
tRp2343
ag12
(F-24
F49
tRp2344
asg17
F1000
sg18
g12
(F513.37323319799555
F465
tRp2345
sg20
F0
sa(dp2346
g8
F992.33333333333337
sg9
F1
sg10
(lp2347
g12
(F-49
F-24
tRp2348
ag12
(F49
F-24
tRp2349
ag12
(F49
F24
tRp2350
ag12
(F-49
F24
tRp2351
asg17
F1000
sg18
g12
(F528.15758158934148
F540
tRp2352
sg20
F0
sasg70
(dp2353
g72
g12
(F0
F0
tRp2354
sg74
I10
ssa(dp2355
g5
(lp2356
(dp2357
g8
Finf
sg9
Finf
sg10
(lp2358
g12
(F-499
F-9
tRp2359
ag12
(F499
F-9
tRp2360
ag12
(F499
F9
tRp2361
ag12
(F-499
F9
tRp2362
asg17
F1000
sg18
g12
(F500
F5
tRp2363
sg20
F0
sa(dp2364
g8
F992.33333333333337
sg9
F1
sg10
(lp2365
g12
(F-49
F-24
tRp2366
ag12
(F49
F-24
tRp2367
ag12
(F49
F24
tRp2368
ag12
(F-49
F24
tRp2369
asg17
F1000
sg18
g12
(F500
F40
tRp2370
sg20
F0
sa(dp2371
g8
F992.33333333333337
sg9
F1
sg10
(lp2372
g12
(F-49
F-24
tRp2373
ag12
(F49
F-24
tRp2374
ag12
(F49
F24
tRp2375
ag12
(F-49
F24
tRp2376
asg17
F1000
sg18
g12
(F514.17320495343847
F90
tRp2377
sg20
F0
sa(dp2378
g8
F992.33333333333337
sg9
F1
sg10
(lp2379
g12
(F-24
F-49
tRp2380
ag12
(F24
F-49
tRp2381
ag12
(F24
F49
tRp2382
ag12
(F-24
F49
tRp2383
asg17
F1000
sg18
g12
(F504.88242020883706
F165
tRp2384
sg20
F0
sa(dp2385
g8
F992.33333333333337
sg9
F1
sg10
(lp2386
g12
(F-49
F-24
tRp2387
ag12
(F49
F-24
tRp2388
ag12
(F49
F24
tRp2389
ag12
(F-49
F24
tRp2390
asg17
F1000
sg18
g12
(F520.00757594823085
F240
tRp2391
sg20
F0
sa(dp2392
g8
F992.33333333333337
sg9
F1
sg10
(lp2393
g12
(F-49
F-24
tRp2394
ag12
(F49
F-24
tRp2395
ag12
(F49
F24
tRp2396
ag12
(F-49
F24
tRp2397
asg17
F1000
sg18
g12
(F451.10135822489372
F290
tRp2398
sg20
F0
sa(dp2399
g8
F992.33333333333337
sg9
F1
sg10
(lp2400
g12
(F-49
F-24
tRp2401
ag12
(F49
F-24
tRp2402
ag12
(F49
F24
tRp2403
ag12
(F-49
F24
tRp2404
asg17
F1000
sg18
g12
(F451.7542733872246
F340
tRp2405
sg20
F0
sa(dp2406
g8
F992.33333333333337
sg9
F1
sg10
(lp2407
g12
(F-49
F-24
tRp2408
ag12
(F49
F-24
tRp2409
ag12
(F49
F24
tRp2410
ag12
(F-49
F24
tRp2411
asg17
F1000
sg18
g12
(F486.68828690898914
F390
tRp2412
sg20
F0
sasg70
(dp2413
g72
g12
(F0
F0
tRp2414
sg74
I10
ssa(dp2415
g5
(lp2416
(dp2417
g8
Finf
sg9
Finf
sg10
(lp2418
g12
(F-499
F-9
tRp2419
ag12
(F499
F-9
tRp2420
ag12
(F499
F9
tRp2421
ag12
(F-499
F9
tRp2422
asg17
F1000
sg18
g12
(F500
F5
tRp2423
sg20
F0
sa(dp2424
g8
F992.33333333333337
sg9
F1
sg10
(lp2425
g12
(F-49
F-24
tRp2426
ag12
(F49
F-24
tRp2427
ag12
(F49
F24
tRp2428
ag12
(F-49
F24
tRp2429
asg17
F1000
sg18
g12
(F500
F40
tRp2430
sg20
F0
sa(dp2431
g8
F992.33333333333337
sg9
F1
sg10
(lp2432
g12
(F-49
F-24
tRp2433
ag12
(F49
F-24
tRp2434
ag12
(F49
F24
tRp2435
ag12
(F-49
F24
tRp2436
asg17
F1000
sg18
g12
(F563.67411204338066
F90
tRp2437
sg20
F0
sa(dp2438
g8
F992.33333333333337
sg9
F1
sg10
(lp2439
g12
(F-49
F-24
tRp2440
ag12
(F49
F-24
tRp2441
ag12
(F49
F24
tRp2442
ag12
(F-49
F24
tRp2443
asg17
F1000
sg18
g12
(F530.66898401647427
F140
tRp2444
sg20
F0
sa(dp2445
g8
F992.33333333333337
sg9
F1
sg10
(lp2446
g12
(F-49
F-24
tRp2447
ag12
(F49
F-24
tRp2448
ag12
(F49
F24
tRp2449
ag12
(F-49
F24
tRp2450
asg17
F1000
sg18
g12
(F507.95072073977491
F190
tRp2451
sg20
F0
sa(dp2452
g8
F992.33333333333337
sg9
F1
sg10
(lp2453
g12
(F-49
F-24
tRp2454
ag12
(F49
F-24
tRp2455
ag12
(F49
F24
tRp2456
ag12
(F-49
F24
tRp2457
asg17
F1000
sg18
g12
(F437.05741765525931
F240
tRp2458
sg20
F0
sa(dp2459
g8
F992.33333333333337
sg9
F1
sg10
(lp2460
g12
(F-24
F-49
tRp2461
ag12
(F24
F-49
tRp2462
ag12
(F24
F49
tRp2463
ag12
(F-24
F49
tRp2464
asg17
F1000
sg18
g12
(F459.74092660121414
F315
tRp2465
sg20
F0
sa(dp2466
g8
F992.33333333333337
sg9
F1
sg10
(lp2467
g12
(F-49
F-24
tRp2468
ag12
(F49
F-24
tRp2469
ag12
(F49
F24
tRp2470
ag12
(F-49
F24
tRp2471
asg17
F1000
sg18
g12
(F456.8133434738661
F390
tRp2472
sg20
F0
sasg70
(dp2473
g72
g12
(F0
F0
tRp2474
sg74
I10
ssa(dp2475
g5
(lp2476
(dp2477
g8
Finf
sg9
Finf
sg10
(lp2478
g12
(F-499
F-9
tRp2479
ag12
(F499
F-9
tRp2480
ag12
(F499
F9
tRp2481
ag12
(F-499
F9
tRp2482
asg17
F1000
sg18
g12
(F500
F5
tRp2483
sg20
F0
sa(dp2484
g8
F992.33333333333337
sg9
F1
sg10
(lp2485
g12
(F-49
F-24
tRp2486
ag12
(F49
F-24
tRp2487
ag12
(F49
F24
tRp2488
ag12
(F-49
F24
tRp2489
asg17
F1000
sg18
g12
(F500
F40
tRp2490
sg20
F0
sa(dp2491
g8
F992.33333333333337
sg9
F1
sg10
(lp2492
g12
(F-49
F-24
tRp2493
ag12
(F49
F-24
tRp2494
ag12
(F49
F24
tRp2495
ag12
(F-49
F24
tRp2496
asg17
F1000
sg18
g12
(F513.9593899882293
F90
tRp2497
sg20
F0
sa(dp2498
g8
F992.33333333333337
sg9
F1
sg10
(lp2499
g12
(F-49
F-24
tRp2500
ag12
(F49
F-24
tRp2501
ag12
(F49
F24
tRp2502
ag12
(F-49
F24
tRp2503
asg17
F1000
sg18
g12
(F441.27658473471814
F140
tRp2504
sg20
F0
sa(dp2505
g8
F992.33333333333337
sg9
F1
sg10
(lp2506
g12
(F-49
F-24
tRp2507
ag12
(F49
F-24
tRp2508
ag12
(F49
F24
tRp2509
ag12
(F-49
F24
tRp2510
asg17
F1000
sg18
g12
(F416.94491360592349
F190
tRp2511
sg20
F0
sa(dp2512
g8
F992.33333333333337
sg9
F1
sg10
(lp2513
g12
(F-24
F-49
tRp2514
ag12
(F24
F-49
tRp2515
ag12
(F24
F49
tRp2516
ag12
(F-24
F49
tRp2517
asg17
F1000
sg18
g12
(F433.23481856171037
F265
tRp2518
sg20
F0
sa(dp2519
g8
F992.33333333333337
sg9
F1
sg10
(lp2520
g12
(F-49
F-24
tRp2521
ag12
(F49
F-24
tRp2522
ag12
(F49
F24
tRp2523
ag12
(F-49
F24
tRp2524
asg17
F1000
sg18
g12
(F386.49350846309136
F340
tRp2525
sg20
F0
sa(dp2526
g8
F992.33333333333337
sg9
F1
sg10
(lp2527
g12
(F-49
F-24
tRp2528
ag12
(F49
F-24
tRp2529
ag12
(F49
F24
tRp2530
ag12
(F-49
F24
tRp2531
asg17
F1000
sg18
g12
(F332.2634144658486
F390
tRp2532
sg20
F0
sasg70
(dp2533
g72
g12
(F0
F0
tRp2534
sg74
I10
ssa(dp2535
g5
(lp2536
(dp2537
g8
Finf
sg9
Finf
sg10
(lp2538
g12
(F-499
F-9
tRp2539
ag12
(F499
F-9
tRp2540
ag12
(F499
F9
tRp2541
ag12
(F-499
F9
tRp2542
asg17
F1000
sg18
g12
(F500
F5
tRp2543
sg20
F0
sa(dp2544
g8
F992.33333333333337
sg9
F1
sg10
(lp2545
g12
(F-49
F-24
tRp2546
ag12
(F49
F-24
tRp2547
ag12
(F49
F24
tRp2548
ag12
(F-49
F24
tRp2549
asg17
F1000
sg18
g12
(F500
F40
tRp2550
sg20
F0
sa(dp2551
g8
F992.33333333333337
sg9
F1
sg10
(lp2552
g12
(F-49
F-24
tRp2553
ag12
(F49
F-24
tRp2554
ag12
(F49
F24
tRp2555
ag12
(F-49
F24
tRp2556
asg17
F1000
sg18
g12
(F462.21449180910054
F90
tRp2557
sg20
F0
sa(dp2558
g8
F992.33333333333337
sg9
F1
sg10
(lp2559
g12
(F-24
F-49
tRp2560
ag12
(F24
F-49
tRp2561
ag12
(F24
F49
tRp2562
ag12
(F-24
F49
tRp2563
asg17
F1000
sg18
g12
(F482.36542699521755
F165
tRp2564
sg20
F0
sa(dp2565
g8
F992.33333333333337
sg9
F1
sg10
(lp2566
g12
(F-49
F-24
tRp2567
ag12
(F49
F-24
tRp2568
ag12
(F49
F24
tRp2569
ag12
(F-49
F24
tRp2570
asg17
F1000
sg18
g12
(F489.02594613103992
F240
tRp2571
sg20
F0
sa(dp2572
g8
F992.33333333333337
sg9
F1
sg10
(lp2573
g12
(F-24
F-49
tRp2574
ag12
(F24
F-49
tRp2575
ag12
(F24
F49
tRp2576
ag12
(F-24
F49
tRp2577
asg17
F1000
sg18
g12
(F465.66225691327952
F315
tRp2578
sg20
F0
sa(dp2579
g8
F992.33333333333337
sg9
F1
sg10
(lp2580
g12
(F-24
F-49
tRp2581
ag12
(F24
F-49
tRp2582
ag12
(F24
F49
tRp2583
ag12
(F-24
F49
tRp2584
asg17
F1000
sg18
g12
(F437.19188200169214
F415
tRp2585
sg20
F0
sa(dp2586
g8
F992.33333333333337
sg9
F1
sg10
(lp2587
g12
(F-49
F-24
tRp2588
ag12
(F49
F-24
tRp2589
ag12
(F49
F24
tRp2590
ag12
(F-49
F24
tRp2591
asg17
F1000
sg18
g12
(F403.87256374608478
F490
tRp2592
sg20
F0
sasg70
(dp2593
g72
g12
(F0
F0
tRp2594
sg74
I10
ssa(dp2595
g5
(lp2596
(dp2597
g8
Finf
sg9
Finf
sg10
(lp2598
g12
(F-499
F-9
tRp2599
ag12
(F499
F-9
tRp2600
ag12
(F499
F9
tRp2601
ag12
(F-499
F9
tRp2602
asg17
F1000
sg18
g12
(F500
F5
tRp2603
sg20
F0
sa(dp2604
g8
F992.33333333333337
sg9
F1
sg10
(lp2605
g12
(F-49
F-24
tRp2606
ag12
(F49
F-24
tRp2607
ag12
(F49
F24
tRp2608
ag12
(F-49
F24
tRp2609
asg17
F1000
sg18
g12
(F500
F40
tRp2610
sg20
F0
sa(dp2611
g8
F992.33333333333337
sg9
F1
sg10
(lp2612
g12
(F-24
F-49
tRp2613
ag12
(F24
F-49
tRp2614
ag12
(F24
F49
tRp2615
ag12
(F-24
F49
tRp2616
asg17
F1000
sg18
g12
(F557.80404848874309
F115
tRp2617
sg20
F0
sa(dp2618
g8
F992.33333333333337
sg9
F1
sg10
(lp2619
g12
(F-49
F-24
tRp2620
ag12
(F49
F-24
tRp2621
ag12
(F49
F24
tRp2622
ag12
(F-49
F24
tRp2623
asg17
F1000
sg18
g12
(F573.45985894974069
F190
tRp2624
sg20
F0
sa(dp2625
g8
F992.33333333333337
sg9
F1
sg10
(lp2626
g12
(F-49
F-24
tRp2627
ag12
(F49
F-24
tRp2628
ag12
(F49
F24
tRp2629
ag12
(F-49
F24
tRp2630
asg17
F1000
sg18
g12
(F626.57313224536131
F240
tRp2631
sg20
F0
sa(dp2632
g8
F992.33333333333337
sg9
F1
sg10
(lp2633
g12
(F-49
F-24
tRp2634
ag12
(F49
F-24
tRp2635
ag12
(F49
F24
tRp2636
ag12
(F-49
F24
tRp2637
asg17
F1000
sg18
g12
(F603.58851814444927
F290
tRp2638
sg20
F0
sa(dp2639
g8
F992.33333333333337
sg9
F1
sg10
(lp2640
g12
(F-24
F-49
tRp2641
ag12
(F24
F-49
tRp2642
ag12
(F24
F49
tRp2643
ag12
(F-24
F49
tRp2644
asg17
F1000
sg18
g12
(F560.11670906597215
F365
tRp2645
sg20
F0
sa(dp2646
g8
F992.33333333333337
sg9
F1
sg10
(lp2647
g12
(F-49
F-24
tRp2648
ag12
(F49
F-24
tRp2649
ag12
(F49
F24
tRp2650
ag12
(F-49
F24
tRp2651
asg17
F1000
sg18
g12
(F570.25708990441797
F440
tRp2652
sg20
F0
sasg70
(dp2653
g72
g12
(F0
F0
tRp2654
sg74
I10
ssa(dp2655
g5
(lp2656
(dp2657
g8
Finf
sg9
Finf
sg10
(lp2658
g12
(F-499
F-9
tRp2659
ag12
(F499
F-9
tRp2660
ag12
(F499
F9
tRp2661
ag12
(F-499
F9
tRp2662
asg17
F1000
sg18
g12
(F500
F5
tRp2663
sg20
F0
sa(dp2664
g8
F992.33333333333337
sg9
F1
sg10
(lp2665
g12
(F-49
F-24
tRp2666
ag12
(F49
F-24
tRp2667
ag12
(F49
F24
tRp2668
ag12
(F-49
F24
tRp2669
asg17
F1000
sg18
g12
(F500
F40
tRp2670
sg20
F0
sa(dp2671
g8
F992.33333333333337
sg9
F1
sg10
(lp2672
g12
(F-24
F-49
tRp2673
ag12
(F24
F-49
tRp2674
ag12
(F24
F49
tRp2675
ag12
(F-24
F49
tRp2676
asg17
F1000
sg18
g12
(F445.09834750756124
F115
tRp2677
sg20
F0
sa(dp2678
g8
F992.33333333333337
sg9
F1
sg10
(lp2679
g12
(F-24
F-49
tRp2680
ag12
(F24
F-49
tRp2681
ag12
(F24
F49
tRp2682
ag12
(F-24
F49
tRp2683
asg17
F1000
sg18
g12
(F470.3492302642702
F215
tRp2684
sg20
F0
sa(dp2685
g8
F992.33333333333337
sg9
F1
sg10
(lp2686
g12
(F-24
F-49
tRp2687
ag12
(F24
F-49
tRp2688
ag12
(F24
F49
tRp2689
ag12
(F-24
F49
tRp2690
asg17
F1000
sg18
g12
(F482.76157314793102
F315
tRp2691
sg20
F0
sa(dp2692
g8
F992.33333333333337
sg9
F1
sg10
(lp2693
g12
(F-24
F-49
tRp2694
ag12
(F24
F-49
tRp2695
ag12
(F24
F49
tRp2696
ag12
(F-24
F49
tRp2697
asg17
F1000
sg18
g12
(F481.92535951100814
F415
tRp2698
sg20
F0
sa(dp2699
g8
F992.33333333333337
sg9
F1
sg10
(lp2700
g12
(F-49
F-24
tRp2701
ag12
(F49
F-24
tRp2702
ag12
(F49
F24
tRp2703
ag12
(F-49
F24
tRp2704
asg17
F1000
sg18
g12
(F501.40193982592541
F490
tRp2705
sg20
F0
sa(dp2706
g8
F992.33333333333337
sg9
F1
sg10
(lp2707
g12
(F-49
F-24
tRp2708
ag12
(F49
F-24
tRp2709
ag12
(F49
F24
tRp2710
ag12
(F-49
F24
tRp2711
asg17
F1000
sg18
g12
(F494.03791660785896
F540
tRp2712
sg20
F0
sasg70
(dp2713
g72
g12
(F0
F0
tRp2714
sg74
I10
ssa(dp2715
g5
(lp2716
(dp2717
g8
Finf
sg9
Finf
sg10
(lp2718
g12
(F-499
F-9
tRp2719
ag12
(F499
F-9
tRp2720
ag12
(F499
F9
tRp2721
ag12
(F-499
F9
tRp2722
asg17
F1000
sg18
g12
(F500
F5
tRp2723
sg20
F0
sa(dp2724
g8
F992.33333333333337
sg9
F1
sg10
(lp2725
g12
(F-49
F-24
tRp2726
ag12
(F49
F-24
tRp2727
ag12
(F49
F24
tRp2728
ag12
(F-49
F24
tRp2729
asg17
F1000
sg18
g12
(F500
F40
tRp2730
sg20
F0
sa(dp2731
g8
F992.33333333333337
sg9
F1
sg10
(lp2732
g12
(F-24
F-49
tRp2733
ag12
(F24
F-49
tRp2734
ag12
(F24
F49
tRp2735
ag12
(F-24
F49
tRp2736
asg17
F1000
sg18
g12
(F529.85626980768825
F115
tRp2737
sg20
F0
sa(dp2738
g8
F992.33333333333337
sg9
F1
sg10
(lp2739
g12
(F-49
F-24
tRp2740
ag12
(F49
F-24
tRp2741
ag12
(F49
F24
tRp2742
ag12
(F-49
F24
tRp2743
asg17
F1000
sg18
g12
(F533.98877830737649
F190
tRp2744
sg20
F0
sa(dp2745
g8
F992.33333333333337
sg9
F1
sg10
(lp2746
g12
(F-49
F-24
tRp2747
ag12
(F49
F-24
tRp2748
ag12
(F49
F24
tRp2749
ag12
(F-49
F24
tRp2750
asg17
F1000
sg18
g12
(F567.2052318016714
F240
tRp2751
sg20
F0
sa(dp2752
g8
F992.33333333333337
sg9
F1
sg10
(lp2753
g12
(F-24
F-49
tRp2754
ag12
(F24
F-49
tRp2755
ag12
(F24
F49
tRp2756
ag12
(F-24
F49
tRp2757
asg17
F1000
sg18
g12
(F537.60146094802326
F315
tRp2758
sg20
F0
sa(dp2759
g8
F992.33333333333337
sg9
F1
sg10
(lp2760
g12
(F-24
F-49
tRp2761
ag12
(F24
F-49
tRp2762
ag12
(F24
F49
tRp2763
ag12
(F-24
F49
tRp2764
asg17
F1000
sg18
g12
(F544.78815461210809
F415
tRp2765
sg20
F0
sa(dp2766
g8
F992.33333333333337
sg9
F1
sg10
(lp2767
g12
(F-49
F-24
tRp2768
ag12
(F49
F-24
tRp2769
ag12
(F49
F24
tRp2770
ag12
(F-49
F24
tRp2771
asg17
F1000
sg18
g12
(F565.12957705556755
F490
tRp2772
sg20
F0
sasg70
(dp2773
g72
g12
(F0
F0
tRp2774
sg74
I10
ssa(dp2775
g5
(lp2776
(dp2777
g8
Finf
sg9
Finf
sg10
(lp2778
g12
(F-499
F-9
tRp2779
ag12
(F499
F-9
tRp2780
ag12
(F499
F9
tRp2781
ag12
(F-499
F9
tRp2782
asg17
F1000
sg18
g12
(F500
F5
tRp2783
sg20
F0
sa(dp2784
g8
F992.33333333333337
sg9
F1
sg10
(lp2785
g12
(F-49
F-24
tRp2786
ag12
(F49
F-24
tRp2787
ag12
(F49
F24
tRp2788
ag12
(F-49
F24
tRp2789
asg17
F1000
sg18
g12
(F500
F40
tRp2790
sg20
F0
sa(dp2791
g8
F992.33333333333337
sg9
F1
sg10
(lp2792
g12
(F-49
F-24
tRp2793
ag12
(F49
F-24
tRp2794
ag12
(F49
F24
tRp2795
ag12
(F-49
F24
tRp2796
asg17
F1000
sg18
g12
(F555.60914054227737
F90
tRp2797
sg20
F0
sa(dp2798
g8
F992.33333333333337
sg9
F1
sg10
(lp2799
g12
(F-24
F-49
tRp2800
ag12
(F24
F-49
tRp2801
ag12
(F24
F49
tRp2802
ag12
(F-24
F49
tRp2803
asg17
F1000
sg18
g12
(F601.29186985356421
F165
tRp2804
sg20
F0
sa(dp2805
g8
F992.33333333333337
sg9
F1
sg10
(lp2806
g12
(F-24
F-49
tRp2807
ag12
(F24
F-49
tRp2808
ag12
(F24
F49
tRp2809
ag12
(F-24
F49
tRp2810
asg17
F1000
sg18
g12
(F629.42212070516189
F265
tRp2811
sg20
F0
sa(dp2812
g8
F992.33333333333337
sg9
F1
sg10
(lp2813
g12
(F-49
F-24
tRp2814
ag12
(F49
F-24
tRp2815
ag12
(F49
F24
tRp2816
ag12
(F-49
F24
tRp2817
asg17
F1000
sg18
g12
(F644.19448150944925
F340
tRp2818
sg20
F0
sa(dp2819
g8
F992.33333333333337
sg9
F1
sg10
(lp2820
g12
(F-24
F-49
tRp2821
ag12
(F24
F-49
tRp2822
ag12
(F24
F49
tRp2823
ag12
(F-24
F49
tRp2824
asg17
F1000
sg18
g12
(F613.17767916490936
F415
tRp2825
sg20
F0
sa(dp2826
g8
F992.33333333333337
sg9
F1
sg10
(lp2827
g12
(F-49
F-24
tRp2828
ag12
(F49
F-24
tRp2829
ag12
(F49
F24
tRp2830
ag12
(F-49
F24
tRp2831
asg17
F1000
sg18
g12
(F636.96128661792295
F490
tRp2832
sg20
F0
sasg70
(dp2833
g72
g12
(F0
F0
tRp2834
sg74
I10
ssa(dp2835
g5
(lp2836
(dp2837
g8
Finf
sg9
Finf
sg10
(lp2838
g12
(F-499
F-9
tRp2839
ag12
(F499
F-9
tRp2840
ag12
(F499
F9
tRp2841
ag12
(F-499
F9
tRp2842
asg17
F1000
sg18
g12
(F500
F5
tRp2843
sg20
F0
sa(dp2844
g8
F992.33333333333337
sg9
F1
sg10
(lp2845
g12
(F-49
F-24
tRp2846
ag12
(F49
F-24
tRp2847
ag12
(F49
F24
tRp2848
ag12
(F-49
F24
tRp2849
asg17
F1000
sg18
g12
(F500
F40
tRp2850
sg20
F0
sa(dp2851
g8
F992.33333333333337
sg9
F1
sg10
(lp2852
g12
(F-49
F-24
tRp2853
ag12
(F49
F-24
tRp2854
ag12
(F49
F24
tRp2855
ag12
(F-49
F24
tRp2856
asg17
F1000
sg18
g12
(F519.54165047539902
F90
tRp2857
sg20
F0
sa(dp2858
g8
F992.33333333333337
sg9
F1
sg10
(lp2859
g12
(F-49
F-24
tRp2860
ag12
(F49
F-24
tRp2861
ag12
(F49
F24
tRp2862
ag12
(F-49
F24
tRp2863
asg17
F1000
sg18
g12
(F452.60277266047046
F140
tRp2864
sg20
F0
sa(dp2865
g8
F992.33333333333337
sg9
F1
sg10
(lp2866
g12
(F-49
F-24
tRp2867
ag12
(F49
F-24
tRp2868
ag12
(F49
F24
tRp2869
ag12
(F-49
F24
tRp2870
asg17
F1000
sg18
g12
(F429.09384420924846
F190
tRp2871
sg20
F0
sa(dp2872
g8
F992.33333333333337
sg9
F1
sg10
(lp2873
g12
(F-49
F-24
tRp2874
ag12
(F49
F-24
tRp2875
ag12
(F49
F24
tRp2876
ag12
(F-49
F24
tRp2877
asg17
F1000
sg18
g12
(F478.85895422172166
F240
tRp2878
sg20
F0
sa(dp2879
g8
F992.33333333333337
sg9
F1
sg10
(lp2880
g12
(F-49
F-24
tRp2881
ag12
(F49
F-24
tRp2882
ag12
(F49
F24
tRp2883
ag12
(F-49
F24
tRp2884
asg17
F1000
sg18
g12
(F486.53890203004084
F290
tRp2885
sg20
F0
sa(dp2886
g8
F992.33333333333337
sg9
F1
sg10
(lp2887
g12
(F-49
F-24
tRp2888
ag12
(F49
F-24
tRp2889
ag12
(F49
F24
tRp2890
ag12
(F-49
F24
tRp2891
asg17
F1000
sg18
g12
(F504.71462268427848
F340
tRp2892
sg20
F0
sasg70
(dp2893
g72
g12
(F0
F0
tRp2894
sg74
I10
ssa(dp2895
g5
(lp2896
(dp2897
g8
Finf
sg9
Finf
sg10
(lp2898
g12
(F-499
F-9
tRp2899
ag12
(F499
F-9
tRp2900
ag12
(F499
F9
tRp2901
ag12
(F-499
F9
tRp2902
asg17
F1000
sg18
g12
(F500
F5
tRp2903
sg20
F0
sa(dp2904
g8
F992.33333333333337
sg9
F1
sg10
(lp2905
g12
(F-49
F-24
tRp2906
ag12
(F49
F-24
tRp2907
ag12
(F49
F24
tRp2908
ag12
(F-49
F24
tRp2909
asg17
F1000
sg18
g12
(F500
F40
tRp2910
sg20
F0
sa(dp2911
g8
F992.33333333333337
sg9
F1
sg10
(lp2912
g12
(F-24
F-49
tRp2913
ag12
(F24
F-49
tRp2914
ag12
(F24
F49
tRp2915
ag12
(F-24
F49
tRp2916
asg17
F1000
sg18
g12
(F528.1825895594917
F115
tRp2917
sg20
F0
sa(dp2918
g8
F992.33333333333337
sg9
F1
sg10
(lp2919
g12
(F-24
F-49
tRp2920
ag12
(F24
F-49
tRp2921
ag12
(F24
F49
tRp2922
ag12
(F-24
F49
tRp2923
asg17
F1000
sg18
g12
(F538.9938000654746
F215
tRp2924
sg20
F0
sa(dp2925
g8
F992.33333333333337
sg9
F1
sg10
(lp2926
g12
(F-24
F-49
tRp2927
ag12
(F24
F-49
tRp2928
ag12
(F24
F49
tRp2929
ag12
(F-24
F49
tRp2930
asg17
F1000
sg18
g12
(F517.82697785005678
F315
tRp2931
sg20
F0
sa(dp2932
g8
F992.33333333333337
sg9
F1
sg10
(lp2933
g12
(F-24
F-49
tRp2934
ag12
(F24
F-49
tRp2935
ag12
(F24
F49
tRp2936
ag12
(F-24
F49
tRp2937
asg17
F1000
sg18
g12
(F530.15756311426037
F415
tRp2938
sg20
F0
sa(dp2939
g8
F992.33333333333337
sg9
F1
sg10
(lp2940
g12
(F-24
F-49
tRp2941
ag12
(F24
F-49
tRp2942
ag12
(F24
F49
tRp2943
ag12
(F-24
F49
tRp2944
asg17
F1000
sg18
g12
(F540.77098340564646
F515
tRp2945
sg20
F0
sa(dp2946
g8
F992.33333333333337
sg9
F1
sg10
(lp2947
g12
(F-49
F-24
tRp2948
ag12
(F49
F-24
tRp2949
ag12
(F49
F24
tRp2950
ag12
(F-49
F24
tRp2951
asg17
F1000
sg18
g12
(F545.96088900267409
F590
tRp2952
sg20
F0
sasg70
(dp2953
g72
g12
(F0
F0
tRp2954
sg74
I10
ssa(dp2955
g5
(lp2956
(dp2957
g8
Finf
sg9
Finf
sg10
(lp2958
g12
(F-499
F-9
tRp2959
ag12
(F499
F-9
tRp2960
ag12
(F499
F9
tRp2961
ag12
(F-499
F9
tRp2962
asg17
F1000
sg18
g12
(F500
F5
tRp2963
sg20
F0
sa(dp2964
g8
F992.33333333333337
sg9
F1
sg10
(lp2965
g12
(F-49
F-24
tRp2966
ag12
(F49
F-24
tRp2967
ag12
(F49
F24
tRp2968
ag12
(F-49
F24
tRp2969
asg17
F1000
sg18
g12
(F500
F40
tRp2970
sg20
F0
sa(dp2971
g8
F992.33333333333337
sg9
F1
sg10
(lp2972
g12
(F-24
F-49
tRp2973
ag12
(F24
F-49
tRp2974
ag12
(F24
F49
tRp2975
ag12
(F-24
F49
tRp2976
asg17
F1000
sg18
g12
(F513.59793292121833
F115
tRp2977
sg20
F0
sa(dp2978
g8
F992.33333333333337
sg9
F1
sg10
(lp2979
g12
(F-24
F-49
tRp2980
ag12
(F24
F-49
tRp2981
ag12
(F24
F49
tRp2982
ag12
(F-24
F49
tRp2983
asg17
F1000
sg18
g12
(F540.53716632087378
F215
tRp2984
sg20
F0
sa(dp2985
g8
F992.33333333333337
sg9
F1
sg10
(lp2986
g12
(F-24
F-49
tRp2987
ag12
(F24
F-49
tRp2988
ag12
(F24
F49
tRp2989
ag12
(F-24
F49
tRp2990
asg17
F1000
sg18
g12
(F533.29022049543596
F315
tRp2991
sg20
F0
sa(dp2992
g8
F992.33333333333337
sg9
F1
sg10
(lp2993
g12
(F-49
F-24
tRp2994
ag12
(F49
F-24
tRp2995
ag12
(F49
F24
tRp2996
ag12
(F-49
F24
tRp2997
asg17
F1000
sg18
g12
(F508.85531503153283
F390
tRp2998
sg20
F0
sa(dp2999
g8
F992.33333333333337
sg9
F1
sg10
(lp3000
g12
(F-24
F-49
tRp3001
ag12
(F24
F-49
tRp3002
ag12
(F24
F49
tRp3003
ag12
(F-24
F49
tRp3004
asg17
F1000
sg18
g12
(F520.98742578848544
F465
tRp3005
sg20
F0
sa(dp3006
g8
F992.33333333333337
sg9
F1
sg10
(lp3007
g12
(F-49
F-24
tRp3008
ag12
(F49
F-24
tRp3009
ag12
(F49
F24
tRp3010
ag12
(F-49
F24
tRp3011
asg17
F1000
sg18
g12
(F507.00538022030963
F540
tRp3012
sg20
F0
sasg70
(dp3013
g72
g12
(F0
F0
tRp3014
sg74
I10
ssasS'label'
p3015
(lp3016
ccollections
OrderedDict
p3017
((lp3018
(lp3019
(I500
I40
tp3020
aI01
aa(lp3021
(I493
I115
tp3022
aI01
aa(lp3023
(I476
I190
tp3024
aI00
aa(lp3025
(I512
I265
tp3026
aI00
aa(lp3027
(I510
I365
tp3028
aI00
aa(lp3029
(I549
I440
tp3030
aI00
aa(lp3031
(I559
I515
tp3032
aI00
aatRp3033
ag3017
((lp3034
(lp3035
(I500
I40
tp3036
aI00
aa(lp3037
(I561
I115
tp3038
aI00
aa(lp3039
(I573
I215
tp3040
aI00
aa(lp3041
(I585
I315
tp3042
aI00
aa(lp3043
(I579
I390
tp3044
aI00
aa(lp3045
(I563
I465
tp3046
aI00
aa(lp3047
(I550
I565
tp3048
aI00
aatRp3049
ag3017
((lp3050
(lp3051
(I500
I40
tp3052
aI01
aa(lp3053
(I465
I115
tp3054
aI01
aa(lp3055
(I469
I215
tp3056
aI01
aa(lp3057
(I433
I315
tp3058
aI00
aa(lp3059
(I443
I390
tp3060
aI00
aa(lp3061
(I484
I465
tp3062
aI00
aa(lp3063
(I491
I565
tp3064
aI00
aatRp3065
ag3017
((lp3066
(lp3067
(I500
I40
tp3068
aI01
aa(lp3069
(I514
I90
tp3070
aI01
aa(lp3071
(I475
I165
tp3072
aI01
aa(lp3073
(I462
I265
tp3074
aI01
aa(lp3075
(I468
I365
tp3076
aI01
aa(lp3077
(I467
I440
tp3078
aI01
aa(lp3079
(I474
I515
tp3080
aI01
aatRp3081
ag3017
((lp3082
(lp3083
(I500
I40
tp3084
aI01
aa(lp3085
(I474
I115
tp3086
aI01
aa(lp3087
(I463
I215
tp3088
aI01
aa(lp3089
(I458
I315
tp3090
aI01
aa(lp3091
(I480
I415
tp3092
aI01
aa(lp3093
(I465
I490
tp3094
aI01
aa(lp3095
(I465
I540
tp3096
aI01
aatRp3097
ag3017
((lp3098
(lp3099
(I500
I40
tp3100
aI01
aa(lp3101
(I515
I115
tp3102
aI01
aa(lp3103
(I534
I190
tp3104
aI01
aa(lp3105
(I534
I240
tp3106
aI01
aa(lp3107
(I535
I290
tp3108
aI01
aa(lp3109
(I539
I365
tp3110
aI01
aa(lp3111
(I523
I465
tp3112
aI01
aatRp3113
ag3017
((lp3114
(lp3115
(I500
I40
tp3116
aI00
aa(lp3117
(I465
I90
tp3118
aI00
aa(lp3119
(I456
I165
tp3120
aI00
aa(lp3121
(I408
I240
tp3122
aI00
aa(lp3123
(I396
I315
tp3124
aI00
aa(lp3125
(I403
I415
tp3126
aI00
aa(lp3127
(I377
I515
tp3128
aI00
aatRp3129
ag3017
((lp3130
(lp3131
(I500
I40
tp3132
aI01
aa(lp3133
(I477
I115
tp3134
aI01
aa(lp3135
(I469
I215
tp3136
aI00
aa(lp3137
(I483
I315
tp3138
aI00
aa(lp3139
(I454
I390
tp3140
aI00
aa(lp3141
(I434
I465
tp3142
aI00
aa(lp3143
(I414
I565
tp3144
aI00
aatRp3145
ag3017
((lp3146
(lp3147
(I500
I40
tp3148
aI01
aa(lp3149
(I456
I115
tp3150
aI01
aa(lp3151
(I464
I215
tp3152
aI01
aa(lp3153
(I473
I315
tp3154
aI01
aa(lp3155
(I445
I415
tp3156
aI01
aa(lp3157
(I450
I490
tp3158
aI01
aa(lp3159
(I460
I565
tp3160
aI01
aatRp3161
ag3017
((lp3162
(lp3163
(I500
I40
tp3164
aI00
aa(lp3165
(I561
I90
tp3166
aI00
aa(lp3167
(I609
I165
tp3168
aI00
aa(lp3169
(I611
I265
tp3170
aI00
aa(lp3171
(I614
I365
tp3172
aI00
aa(lp3173
(I614
I465
tp3174
aI00
aa(lp3175
(I612
I565
tp3176
aI00
aatRp3177
ag3017
((lp3178
(lp3179
(I500
I40
tp3180
aI01
aa(lp3181
(I473
I115
tp3182
aI00
aa(lp3183
(I456
I215
tp3184
aI00
aa(lp3185
(I440
I315
tp3186
aI00
aa(lp3187
(I446
I390
tp3188
aI00
aa(lp3189
(I427
I465
tp3190
aI00
aa(lp3191
(I412
I540
tp3192
aI00
aatRp3193
ag3017
((lp3194
(lp3195
(I500
I40
tp3196
aI00
aa(lp3197
(I425
I90
tp3198
aI00
aa(lp3199
(I425
I165
tp3200
aI00
aa(lp3201
(I454
I265
tp3202
aI00
aa(lp3203
(I435
I365
tp3204
aI00
aa(lp3205
(I414
I465
tp3206
aI00
aa(lp3207
(I457
I540
tp3208
aI00
aatRp3209
ag3017
((lp3210
(lp3211
(I500
I40
tp3212
aI01
aa(lp3213
(I494
I90
tp3214
aI00
aa(lp3215
(I515
I140
tp3216
aI00
aa(lp3217
(I449
I190
tp3218
aI00
aa(lp3219
(I410
I240
tp3220
aI00
aa(lp3221
(I402
I290
tp3222
aI00
aa(lp3223
(I413
I340
tp3224
aI00
aatRp3225
ag3017
((lp3226
(lp3227
(I500
I40
tp3228
aI00
aa(lp3229
(I471
I90
tp3230
aI00
aa(lp3231
(I411
I165
tp3232
aI00
aa(lp3233
(I426
I265
tp3234
aI00
aa(lp3235
(I415
I340
tp3236
aI00
aa(lp3237
(I362
I415
tp3238
aI00
aa(lp3239
(I358
I515
tp3240
aI00
aatRp3241
ag3017
((lp3242
(lp3243
(I500
I40
tp3244
aI01
aa(lp3245
(I526
I90
tp3246
aI01
aa(lp3247
(I541
I165
tp3248
aI00
aa(lp3249
(I497
I240
tp3250
aI00
aa(lp3251
(I471
I290
tp3252
aI00
aa(lp3253
(I425
I365
tp3254
aI00
aa(lp3255
(I399
I440
tp3256
aI00
aatRp3257
ag3017
((lp3258
(lp3259
(I500
I40
tp3260
aI01
aa(lp3261
(I521
I90
tp3262
aI01
aa(lp3263
(I508
I165
tp3264
aI01
aa(lp3265
(I494
I265
tp3266
aI01
aa(lp3267
(I497
I340
tp3268
aI01
aa(lp3269
(I525
I390
tp3270
aI01
aa(lp3271
(I513
I465
tp3272
aI01
aatRp3273
ag3017
((lp3274
(lp3275
(I500
I40
tp3276
aI00
aa(lp3277
(I539
I115
tp3278
aI00
aa(lp3279
(I562
I190
tp3280
aI00
aa(lp3281
(I586
I265
tp3282
aI00
aa(lp3283
(I583
I365
tp3284
aI00
aa(lp3285
(I574
I440
tp3286
aI00
aa(lp3287
(I561
I490
tp3288
aI00
aatRp3289
ag3017
((lp3290
(lp3291
(I500
I40
tp3292
aI00
aa(lp3293
(I526
I115
tp3294
aI00
aa(lp3295
(I555
I190
tp3296
aI00
aa(lp3297
(I619
I240
tp3298
aI00
aa(lp3299
(I598
I315
tp3300
aI00
aa(lp3301
(I612
I390
tp3302
aI00
aa(lp3303
(I622
I465
tp3304
aI00
aatRp3305
ag3017
((lp3306
(lp3307
(I500
I40
tp3308
aI01
aa(lp3309
(I521
I115
tp3310
aI00
aa(lp3311
(I517
I190
tp3312
aI00
aa(lp3313
(I481
I240
tp3314
aI00
aa(lp3315
(I501
I290
tp3316
aI00
aa(lp3317
(I461
I365
tp3318
aI00
aa(lp3319
(I435
I440
tp3320
aI00
aatRp3321
ag3017
((lp3322
(lp3323
(I500
I40
tp3324
aI01
aa(lp3325
(I531
I90
tp3326
aI01
aa(lp3327
(I487
I165
tp3328
aI00
aa(lp3329
(I490
I240
tp3330
aI00
aa(lp3331
(I514
I315
tp3332
aI00
aa(lp3333
(I541
I390
tp3334
aI00
aa(lp3335
(I582
I440
tp3336
aI00
aatRp3337
ag3017
((lp3338
(lp3339
(I500
I40
tp3340
aI01
aa(lp3341
(I499
I90
tp3342
aI00
aa(lp3343
(I433
I140
tp3344
aI00
aa(lp3345
(I458
I215
tp3346
aI00
aa(lp3347
(I434
I290
tp3348
aI00
aa(lp3349
(I423
I365
tp3350
aI00
aa(lp3351
(I447
I440
tp3352
aI00
aatRp3353
ag3017
((lp3354
(lp3355
(I500
I40
tp3356
aI01
aa(lp3357
(I534
I90
tp3358
aI01
aa(lp3359
(I510
I165
tp3360
aI01
aa(lp3361
(I502
I265
tp3362
aI01
aa(lp3363
(I538
I340
tp3364
aI01
aa(lp3365
(I533
I415
tp3366
aI01
aa(lp3367
(I494
I490
tp3368
aI00
aatRp3369
ag3017
((lp3370
(lp3371
(I500
I40
tp3372
aI01
aa(lp3373
(I458
I90
tp3374
aI01
aa(lp3375
(I462
I165
tp3376
aI00
aa(lp3377
(I493
I240
tp3378
aI00
aa(lp3379
(I513
I290
tp3380
aI00
aa(lp3381
(I496
I365
tp3382
aI00
aa(lp3383
(I518
I465
tp3384
aI00
aatRp3385
ag3017
((lp3386
(lp3387
(I500
I40
tp3388
aI01
aa(lp3389
(I486
I115
tp3390
aI00
aa(lp3391
(I515
I215
tp3392
aI00
aa(lp3393
(I512
I290
tp3394
aI00
aa(lp3395
(I537
I365
tp3396
aI00
aa(lp3397
(I531
I465
tp3398
aI00
aa(lp3399
(I526
I565
tp3400
aI00
aatRp3401
ag3017
((lp3402
(lp3403
(I500
I40
tp3404
aI01
aa(lp3405
(I469
I90
tp3406
aI01
aa(lp3407
(I449
I140
tp3408
aI01
aa(lp3409
(I475
I190
tp3410
aI01
aa(lp3411
(I530
I240
tp3412
aI01
aa(lp3413
(I466
I290
tp3414
aI00
aa(lp3415
(I487
I340
tp3416
aI00
aatRp3417
ag3017
((lp3418
(lp3419
(I500
I40
tp3420
aI00
aa(lp3421
(I513
I90
tp3422
aI00
aa(lp3423
(I564
I165
tp3424
aI00
aa(lp3425
(I581
I240
tp3426
aI00
aa(lp3427
(I612
I290
tp3428
aI00
aa(lp3429
(I645
I365
tp3430
aI00
aa(lp3431
(I633
I440
tp3432
aI00
aatRp3433
ag3017
((lp3434
(lp3435
(I500
I40
tp3436
aI01
aa(lp3437
(I489
I115
tp3438
aI01
aa(lp3439
(I477
I215
tp3440
aI01
aa(lp3441
(I472
I315
tp3442
aI01
aa(lp3443
(I492
I415
tp3444
aI01
aa(lp3445
(I481
I490
tp3446
aI00
aa(lp3447
(I445
I565
tp3448
aI00
aatRp3449
ag3017
((lp3450
(lp3451
(I500
I40
tp3452
aI00
aa(lp3453
(I540
I115
tp3454
aI00
aa(lp3455
(I512
I190
tp3456
aI00
aa(lp3457
(I581
I240
tp3458
aI00
aa(lp3459
(I603
I315
tp3460
aI00
aa(lp3461
(I599
I390
tp3462
aI00
aa(lp3463
(I638
I465
tp3464
aI00
aatRp3465
ag3017
((lp3466
(lp3467
(I500
I40
tp3468
aI01
aa(lp3469
(I482
I90
tp3470
aI01
aa(lp3471
(I487
I165
tp3472
aI01
aa(lp3473
(I473
I240
tp3474
aI01
aa(lp3475
(I493
I315
tp3476
aI01
aa(lp3477
(I480
I415
tp3478
aI01
aa(lp3479
(I489
I490
tp3480
aI01
aatRp3481
ag3017
((lp3482
(lp3483
(I500
I40
tp3484
aI00
aa(lp3485
(I506
I90
tp3486
aI00
aa(lp3487
(I578
I140
tp3488
aI00
aa(lp3489
(I594
I215
tp3490
aI00
aa(lp3491
(I608
I290
tp3492
aI00
aa(lp3493
(I617
I340
tp3494
aI00
aa(lp3495
(I623
I415
tp3496
aI00
aatRp3497
ag3017
((lp3498
(lp3499
(I500
I40
tp3500
aI01
aa(lp3501
(I433
I90
tp3502
aI01
aa(lp3503
(I463
I140
tp3504
aI00
aa(lp3505
(I443
I190
tp3506
aI00
aa(lp3507
(I482
I265
tp3508
aI00
aa(lp3509
(I499
I340
tp3510
aI00
aa(lp3511
(I536
I415
tp3512
aI00
aatRp3513
ag3017
((lp3514
(lp3515
(I500
I40
tp3516
aI01
aa(lp3517
(I469
I115
tp3518
aI00
aa(lp3519
(I463
I190
tp3520
aI00
aa(lp3521
(I508
I240
tp3522
aI00
aa(lp3523
(I521
I315
tp3524
aI00
aa(lp3525
(I526
I390
tp3526
aI00
aa(lp3527
(I548
I465
tp3528
aI00
aatRp3529
ag3017
((lp3530
(lp3531
(I500
I40
tp3532
aI01
aa(lp3533
(I451
I90
tp3534
aI00
aa(lp3535
(I439
I165
tp3536
aI00
aa(lp3537
(I450
I240
tp3538
aI00
aa(lp3539
(I452
I290
tp3540
aI00
aa(lp3541
(I431
I365
tp3542
aI00
aa(lp3543
(I445
I440
tp3544
aI00
aatRp3545
ag3017
((lp3546
(lp3547
(I500
I40
tp3548
aI01
aa(lp3549
(I494
I115
tp3550
aI01
aa(lp3551
(I514
I215
tp3552
aI00
aa(lp3553
(I488
I315
tp3554
aI00
aa(lp3555
(I477
I390
tp3556
aI00
aa(lp3557
(I463
I440
tp3558
aI00
aa(lp3559
(I479
I515
tp3560
aI00
aatRp3561
ag3017
((lp3562
(lp3563
(I500
I40
tp3564
aI01
aa(lp3565
(I496
I90
tp3566
aI01
aa(lp3567
(I503
I140
tp3568
aI01
aa(lp3569
(I552
I190
tp3570
aI01
aa(lp3571
(I511
I240
tp3572
aI01
aa(lp3573
(I560
I290
tp3574
aI00
aa(lp3575
(I569
I365
tp3576
aI00
aatRp3577
ag3017
((lp3578
(lp3579
(I500
I40
tp3580
aI01
aa(lp3581
(I533
I90
tp3582
aI01
aa(lp3583
(I552
I140
tp3584
aI01
aa(lp3585
(I535
I190
tp3586
aI01
aa(lp3587
(I515
I265
tp3588
aI01
aa(lp3589
(I510
I340
tp3590
aI01
aa(lp3591
(I499
I390
tp3592
aI01
aatRp3593
ag3017
((lp3594
(lp3595
(I500
I40
tp3596
aI01
aa(lp3597
(I494
I90
tp3598
aI01
aa(lp3599
(I533
I165
tp3600
aI01
aa(lp3601
(I498
I240
tp3602
aI01
aa(lp3603
(I531
I290
tp3604
aI01
aa(lp3605
(I531
I340
tp3606
aI01
aa(lp3607
(I510
I415
tp3608
aI01
aatRp3609
ag3017
((lp3610
(lp3611
(I500
I40
tp3612
aI01
aa(lp3613
(I469
I115
tp3614
aI01
aa(lp3615
(I464
I215
tp3616
aI01
aa(lp3617
(I445
I315
tp3618
aI00
aa(lp3619
(I459
I390
tp3620
aI00
aa(lp3621
(I516
I440
tp3622
aI00
aa(lp3623
(I515
I490
tp3624
aI00
aatRp3625
ag3017
((lp3626
(lp3627
(I500
I40
tp3628
aI01
aa(lp3629
(I477
I115
tp3630
aI00
aa(lp3631
(I502
I215
tp3632
aI00
aa(lp3633
(I531
I290
tp3634
aI00
aa(lp3635
(I541
I365
tp3636
aI00
aa(lp3637
(I513
I465
tp3638
aI00
aa(lp3639
(I528
I540
tp3640
aI00
aatRp3641
ag3017
((lp3642
(lp3643
(I500
I40
tp3644
aI01
aa(lp3645
(I514
I90
tp3646
aI01
aa(lp3647
(I504
I165
tp3648
aI01
aa(lp3649
(I520
I240
tp3650
aI00
aa(lp3651
(I451
I290
tp3652
aI00
aa(lp3653
(I451
I340
tp3654
aI00
aa(lp3655
(I486
I390
tp3656
aI00
aatRp3657
ag3017
((lp3658
(lp3659
(I500
I40
tp3660
aI01
aa(lp3661
(I563
I90
tp3662
aI00
aa(lp3663
(I530
I140
tp3664
aI00
aa(lp3665
(I507
I190
tp3666
aI00
aa(lp3667
(I437
I240
tp3668
aI00
aa(lp3669
(I459
I315
tp3670
aI00
aa(lp3671
(I456
I390
tp3672
aI00
aatRp3673
ag3017
((lp3674
(lp3675
(I500
I40
tp3676
aI00
aa(lp3677
(I513
I90
tp3678
aI00
aa(lp3679
(I441
I140
tp3680
aI00
aa(lp3681
(I416
I190
tp3682
aI00
aa(lp3683
(I433
I265
tp3684
aI00
aa(lp3685
(I386
I340
tp3686
aI00
aa(lp3687
(I332
I390
tp3688
aI00
aatRp3689
ag3017
((lp3690
(lp3691
(I500
I40
tp3692
aI01
aa(lp3693
(I462
I90
tp3694
aI01
aa(lp3695
(I482
I165
tp3696
aI00
aa(lp3697
(I489
I240
tp3698
aI00
aa(lp3699
(I465
I315
tp3700
aI00
aa(lp3701
(I437
I415
tp3702
aI00
aa(lp3703
(I403
I490
tp3704
aI00
aatRp3705
ag3017
((lp3706
(lp3707
(I500
I40
tp3708
aI00
aa(lp3709
(I557
I115
tp3710
aI00
aa(lp3711
(I573
I190
tp3712
aI00
aa(lp3713
(I626
I240
tp3714
aI00
aa(lp3715
(I603
I290
tp3716
aI00
aa(lp3717
(I560
I365
tp3718
aI00
aa(lp3719
(I570
I440
tp3720
aI00
aatRp3721
ag3017
((lp3722
(lp3723
(I500
I40
tp3724
aI01
aa(lp3725
(I445
I115
tp3726
aI00
aa(lp3727
(I470
I215
tp3728
aI00
aa(lp3729
(I482
I315
tp3730
aI00
aa(lp3731
(I481
I415
tp3732
aI00
aa(lp3733
(I501
I490
tp3734
aI00
aa(lp3735
(I494
I540
tp3736
aI00
aatRp3737
ag3017
((lp3738
(lp3739
(I500
I40
tp3740
aI01
aa(lp3741
(I529
I115
tp3742
aI01
aa(lp3743
(I533
I190
tp3744
aI01
aa(lp3745
(I567
I240
tp3746
aI01
aa(lp3747
(I537
I315
tp3748
aI01
aa(lp3749
(I544
I415
tp3750
aI01
aa(lp3751
(I565
I490
tp3752
aI01
aatRp3753
ag3017
((lp3754
(lp3755
(I500
I40
tp3756
aI00
aa(lp3757
(I555
I90
tp3758
aI00
aa(lp3759
(I601
I165
tp3760
aI00
aa(lp3761
(I629
I265
tp3762
aI00
aa(lp3763
(I644
I340
tp3764
aI00
aa(lp3765
(I613
I415
tp3766
aI00
aa(lp3767
(I636
I490
tp3768
aI00
aatRp3769
ag3017
((lp3770
(lp3771
(I500
I40
tp3772
aI01
aa(lp3773
(I519
I90
tp3774
aI01
aa(lp3775
(I452
I140
tp3776
aI01
aa(lp3777
(I429
I190
tp3778
aI01
aa(lp3779
(I478
I240
tp3780
aI00
aa(lp3781
(I486
I290
tp3782
aI00
aa(lp3783
(I504
I340
tp3784
aI00
aatRp3785
ag3017
((lp3786
(lp3787
(I500
I40
tp3788
aI01
aa(lp3789
(I528
I115
tp3790
aI01
aa(lp3791
(I538
I215
tp3792
aI01
aa(lp3793
(I517
I315
tp3794
aI01
aa(lp3795
(I530
I415
tp3796
aI01
aa(lp3797
(I540
I515
tp3798
aI01
aa(lp3799
(I545
I590
tp3800
aI01
aatRp3801
ag3017
((lp3802
(lp3803
(I500
I40
tp3804
aI01
aa(lp3805
(I513
I115
tp3806
aI01
aa(lp3807
(I540
I215
tp3808
aI01
aa(lp3809
(I533
I315
tp3810
aI01
aa(lp3811
(I508
I390
tp3812
aI01
aa(lp3813
(I520
I465
tp3814
aI01
aa(lp3815
(I507
I540
tp3816
aI01
aatRp3817
as.