(dp1
S'data'
p2
(lp3
(dp4
S'blocks'
p5
(lp6
(dp7
S'moment'
p8
Finf
sS'mass'
p9
Finf
sS'vert'
p10
(lp11
cpymunk.vec2d
Vec2d
p12
(F-499
F-9
tRp13
ag12
(F499
F-9
tRp14
ag12
(F499
F9
tRp15
ag12
(F-499
F9
tRp16
asS'fric'
p17
F1000
sS'pos'
p18
g12
(F500
F5
tRp19
sS'elas'
p20
F0
sa(dp21
g8
F1440.6666666666667
sg9
F1
sg10
(lp22
g12
(F-59
F-29
tRp23
ag12
(F59
F-29
tRp24
ag12
(F59
F29
tRp25
ag12
(F-59
F29
tRp26
asg17
F1000
sg18
g12
(F500
F45
tRp27
sg20
F0
sa(dp28
g8
F1440.6666666666667
sg9
F1
sg10
(lp29
g12
(F-59
F-29
tRp30
ag12
(F59
F-29
tRp31
ag12
(F59
F29
tRp32
ag12
(F-59
F29
tRp33
asg17
F1000
sg18
g12
(F496.85888206529683
F105
tRp34
sg20
F0
sa(dp35
g8
F1440.6666666666667
sg9
F1
sg10
(lp36
g12
(F-29
F-59
tRp37
ag12
(F29
F-59
tRp38
ag12
(F29
F59
tRp39
ag12
(F-29
F59
tRp40
asg17
F1000
sg18
g12
(F457.53854502253006
F195
tRp41
sg20
F0
sa(dp42
g8
F1440.6666666666667
sg9
F1
sg10
(lp43
g12
(F-59
F-29
tRp44
ag12
(F59
F-29
tRp45
ag12
(F59
F29
tRp46
ag12
(F-59
F29
tRp47
asg17
F1000
sg18
g12
(F455.36654857682794
F285
tRp48
sg20
F0
sasS'props'
p49
(dp50
S'gravity'
p51
g12
(F0
F0
tRp52
sS'iterations'
p53
I10
ssa(dp54
g5
(lp55
(dp56
g8
Finf
sg9
Finf
sg10
(lp57
g12
(F-499
F-9
tRp58
ag12
(F499
F-9
tRp59
ag12
(F499
F9
tRp60
ag12
(F-499
F9
tRp61
asg17
F1000
sg18
g12
(F500
F5
tRp62
sg20
F0
sa(dp63
g8
F1440.6666666666667
sg9
F1
sg10
(lp64
g12
(F-59
F-29
tRp65
ag12
(F59
F-29
tRp66
ag12
(F59
F29
tRp67
ag12
(F-59
F29
tRp68
asg17
F1000
sg18
g12
(F500
F45
tRp69
sg20
F0
sa(dp70
g8
F1440.6666666666667
sg9
F1
sg10
(lp71
g12
(F-59
F-29
tRp72
ag12
(F59
F-29
tRp73
ag12
(F59
F29
tRp74
ag12
(F-59
F29
tRp75
asg17
F1000
sg18
g12
(F499.61399277127674
F105
tRp76
sg20
F0
sa(dp77
g8
F1440.6666666666667
sg9
F1
sg10
(lp78
g12
(F-29
F-59
tRp79
ag12
(F29
F-59
tRp80
ag12
(F29
F59
tRp81
ag12
(F-29
F59
tRp82
asg17
F1000
sg18
g12
(F460.78498092783178
F195
tRp83
sg20
F0
sa(dp84
g8
F1440.6666666666667
sg9
F1
sg10
(lp85
g12
(F-59
F-29
tRp86
ag12
(F59
F-29
tRp87
ag12
(F59
F29
tRp88
ag12
(F-59
F29
tRp89
asg17
F1000
sg18
g12
(F431.04357077278024
F285
tRp90
sg20
F0
sasg49
(dp91
g51
g12
(F0
F0
tRp92
sg53
I10
ssa(dp93
g5
(lp94
(dp95
g8
Finf
sg9
Finf
sg10
(lp96
g12
(F-499
F-9
tRp97
ag12
(F499
F-9
tRp98
ag12
(F499
F9
tRp99
ag12
(F-499
F9
tRp100
asg17
F1000
sg18
g12
(F500
F5
tRp101
sg20
F0
sa(dp102
g8
F1440.6666666666667
sg9
F1
sg10
(lp103
g12
(F-59
F-29
tRp104
ag12
(F59
F-29
tRp105
ag12
(F59
F29
tRp106
ag12
(F-59
F29
tRp107
asg17
F1000
sg18
g12
(F500
F45
tRp108
sg20
F0
sa(dp109
g8
F1440.6666666666667
sg9
F1
sg10
(lp110
g12
(F-29
F-59
tRp111
ag12
(F29
F-59
tRp112
ag12
(F29
F59
tRp113
ag12
(F-29
F59
tRp114
asg17
F1000
sg18
g12
(F548.50327627970046
F135
tRp115
sg20
F0
sa(dp116
g8
F1440.6666666666667
sg9
F1
sg10
(lp117
g12
(F-29
F-59
tRp118
ag12
(F29
F-59
tRp119
ag12
(F29
F59
tRp120
ag12
(F-29
F59
tRp121
asg17
F1000
sg18
g12
(F603.15728424316649
F255
tRp122
sg20
F0
sa(dp123
g8
F1440.6666666666667
sg9
F1
sg10
(lp124
g12
(F-59
F-29
tRp125
ag12
(F59
F-29
tRp126
ag12
(F59
F29
tRp127
ag12
(F-59
F29
tRp128
asg17
F1000
sg18
g12
(F595.90490602811121
F345
tRp129
sg20
F0
sasg49
(dp130
g51
g12
(F0
F0
tRp131
sg53
I10
ssa(dp132
g5
(lp133
(dp134
g8
Finf
sg9
Finf
sg10
(lp135
g12
(F-499
F-9
tRp136
ag12
(F499
F-9
tRp137
ag12
(F499
F9
tRp138
ag12
(F-499
F9
tRp139
asg17
F1000
sg18
g12
(F500
F5
tRp140
sg20
F0
sa(dp141
g8
F1440.6666666666667
sg9
F1
sg10
(lp142
g12
(F-59
F-29
tRp143
ag12
(F59
F-29
tRp144
ag12
(F59
F29
tRp145
ag12
(F-59
F29
tRp146
asg17
F1000
sg18
g12
(F500
F45
tRp147
sg20
F0
sa(dp148
g8
F1440.6666666666667
sg9
F1
sg10
(lp149
g12
(F-59
F-29
tRp150
ag12
(F59
F-29
tRp151
ag12
(F59
F29
tRp152
ag12
(F-59
F29
tRp153
asg17
F1000
sg18
g12
(F486.16847776732897
F105
tRp154
sg20
F0
sa(dp155
g8
F1440.6666666666667
sg9
F1
sg10
(lp156
g12
(F-59
F-29
tRp157
ag12
(F59
F-29
tRp158
ag12
(F59
F29
tRp159
ag12
(F-59
F29
tRp160
asg17
F1000
sg18
g12
(F491.88932441092504
F165
tRp161
sg20
F0
sa(dp162
g8
F1440.6666666666667
sg9
F1
sg10
(lp163
g12
(F-29
F-59
tRp164
ag12
(F29
F-59
tRp165
ag12
(F29
F59
tRp166
ag12
(F-29
F59
tRp167
asg17
F1000
sg18
g12
(F491.9545426658388
F255
tRp168
sg20
F0
sasg49
(dp169
g51
g12
(F0
F0
tRp170
sg53
I10
ssa(dp171
g5
(lp172
(dp173
g8
Finf
sg9
Finf
sg10
(lp174
g12
(F-499
F-9
tRp175
ag12
(F499
F-9
tRp176
ag12
(F499
F9
tRp177
ag12
(F-499
F9
tRp178
asg17
F1000
sg18
g12
(F500
F5
tRp179
sg20
F0
sa(dp180
g8
F1440.6666666666667
sg9
F1
sg10
(lp181
g12
(F-59
F-29
tRp182
ag12
(F59
F-29
tRp183
ag12
(F59
F29
tRp184
ag12
(F-59
F29
tRp185
asg17
F1000
sg18
g12
(F500
F45
tRp186
sg20
F0
sa(dp187
g8
F1440.6666666666667
sg9
F1
sg10
(lp188
g12
(F-29
F-59
tRp189
ag12
(F29
F-59
tRp190
ag12
(F29
F59
tRp191
ag12
(F-29
F59
tRp192
asg17
F1000
sg18
g12
(F461.59179880322574
F135
tRp193
sg20
F0
sa(dp194
g8
F1440.6666666666667
sg9
F1
sg10
(lp195
g12
(F-59
F-29
tRp196
ag12
(F59
F-29
tRp197
ag12
(F59
F29
tRp198
ag12
(F-59
F29
tRp199
asg17
F1000
sg18
g12
(F392.69980433238959
F225
tRp200
sg20
F0
sa(dp201
g8
F1440.6666666666667
sg9
F1
sg10
(lp202
g12
(F-59
F-29
tRp203
ag12
(F59
F-29
tRp204
ag12
(F59
F29
tRp205
ag12
(F-59
F29
tRp206
asg17
F1000
sg18
g12
(F312.04089942789045
F285
tRp207
sg20
F0
sasg49
(dp208
g51
g12
(F0
F0
tRp209
sg53
I10
ssasS'label'
p210
(lp211
ccollections
OrderedDict
p212
((lp213
(lp214
(I500
I45
tp215
aI01
aa(lp216
(I496
I105
tp217
aI01
aa(lp218
(I457
I195
tp219
aI01
aa(lp220
(I455
I285
tp221
aI01
aatRp222
ag212
((lp223
(lp224
(I500
I45
tp225
aI01
aa(lp226
(I499
I105
tp227
aI01
aa(lp228
(I460
I195
tp229
aI01
aa(lp230
(I431
I285
tp231
aI01
aatRp232
ag212
((lp233
(lp234
(I500
I45
tp235
aI00
aa(lp236
(I548
I135
tp237
aI00
aa(lp238
(I603
I255
tp239
aI00
aa(lp240
(I595
I345
tp241
aI00
aatRp242
ag212
((lp243
(lp244
(I500
I45
tp245
aI01
aa(lp246
(I486
I105
tp247
aI01
aa(lp248
(I491
I165
tp249
aI01
aa(lp250
(I491
I255
tp251
aI01
aatRp252
ag212
((lp253
(lp254
(I500
I45
tp255
aI00
aa(lp256
(I461
I135
tp257
aI00
aa(lp258
(I392
I225
tp259
aI00
aa(lp260
(I312
I285
tp261
aI00
aatRp262
as.