(dp1
S'data'
p2
(lp3
(dp4
S'blocks'
p5
(lp6
(dp7
S'moment'
p8
Finf
sS'mass'
p9
Finf
sS'vert'
p10
(lp11
cpymunk.vec2d
Vec2d
p12
(F-499
F-9
tRp13
ag12
(F499
F-9
tRp14
ag12
(F499
F9
tRp15
ag12
(F-499
F9
tRp16
asS'fric'
p17
F1000
sS'pos'
p18
g12
(F500
F5
tRp19
sS'elas'
p20
F0
sa(dp21
g8
F992.33333333333337
sg9
F1
sg10
(lp22
g12
(F-49
F-24
tRp23
ag12
(F49
F-24
tRp24
ag12
(F49
F24
tRp25
ag12
(F-49
F24
tRp26
asg17
F1000
sg18
g12
(F500
F40
tRp27
sg20
F0
sa(dp28
g8
F992.33333333333337
sg9
F1
sg10
(lp29
g12
(F-49
F-24
tRp30
ag12
(F49
F-24
tRp31
ag12
(F49
F24
tRp32
ag12
(F-49
F24
tRp33
asg17
F1000
sg18
g12
(F508.0113171626524
F90
tRp34
sg20
F0
sa(dp35
g8
F992.33333333333337
sg9
F1
sg10
(lp36
g12
(F-49
F-24
tRp37
ag12
(F49
F-24
tRp38
ag12
(F49
F24
tRp39
ag12
(F-49
F24
tRp40
asg17
F1000
sg18
g12
(F495.15940570912483
F140
tRp41
sg20
F0
sa(dp42
g8
F992.33333333333337
sg9
F1
sg10
(lp43
g12
(F-49
F-24
tRp44
ag12
(F49
F-24
tRp45
ag12
(F49
F24
tRp46
ag12
(F-49
F24
tRp47
asg17
F1000
sg18
g12
(F538.60168980815786
F190
tRp48
sg20
F0
sasS'props'
p49
(dp50
S'gravity'
p51
g12
(F0
F0
tRp52
sS'iterations'
p53
I10
ssa(dp54
g5
(lp55
(dp56
g8
Finf
sg9
Finf
sg10
(lp57
g12
(F-499
F-9
tRp58
ag12
(F499
F-9
tRp59
ag12
(F499
F9
tRp60
ag12
(F-499
F9
tRp61
asg17
F1000
sg18
g12
(F500
F5
tRp62
sg20
F0
sa(dp63
g8
F992.33333333333337
sg9
F1
sg10
(lp64
g12
(F-49
F-24
tRp65
ag12
(F49
F-24
tRp66
ag12
(F49
F24
tRp67
ag12
(F-49
F24
tRp68
asg17
F1000
sg18
g12
(F500
F40
tRp69
sg20
F0
sa(dp70
g8
F992.33333333333337
sg9
F1
sg10
(lp71
g12
(F-24
F-49
tRp72
ag12
(F24
F-49
tRp73
ag12
(F24
F49
tRp74
ag12
(F-24
F49
tRp75
asg17
F1000
sg18
g12
(F532.56147654581036
F115
tRp76
sg20
F0
sa(dp77
g8
F992.33333333333337
sg9
F1
sg10
(lp78
g12
(F-24
F-49
tRp79
ag12
(F24
F-49
tRp80
ag12
(F24
F49
tRp81
ag12
(F-24
F49
tRp82
asg17
F1000
sg18
g12
(F548.62553635629445
F215
tRp83
sg20
F0
sa(dp84
g8
F992.33333333333337
sg9
F1
sg10
(lp85
g12
(F-49
F-24
tRp86
ag12
(F49
F-24
tRp87
ag12
(F49
F24
tRp88
ag12
(F-49
F24
tRp89
asg17
F1000
sg18
g12
(F576.87033043509632
F290
tRp90
sg20
F0
sasg49
(dp91
g51
g12
(F0
F0
tRp92
sg53
I10
ssa(dp93
g5
(lp94
(dp95
g8
Finf
sg9
Finf
sg10
(lp96
g12
(F-499
F-9
tRp97
ag12
(F499
F-9
tRp98
ag12
(F499
F9
tRp99
ag12
(F-499
F9
tRp100
asg17
F1000
sg18
g12
(F500
F5
tRp101
sg20
F0
sa(dp102
g8
F992.33333333333337
sg9
F1
sg10
(lp103
g12
(F-49
F-24
tRp104
ag12
(F49
F-24
tRp105
ag12
(F49
F24
tRp106
ag12
(F-49
F24
tRp107
asg17
F1000
sg18
g12
(F500
F40
tRp108
sg20
F0
sa(dp109
g8
F992.33333333333337
sg9
F1
sg10
(lp110
g12
(F-49
F-24
tRp111
ag12
(F49
F-24
tRp112
ag12
(F49
F24
tRp113
ag12
(F-49
F24
tRp114
asg17
F1000
sg18
g12
(F524.29263824819827
F90
tRp115
sg20
F0
sa(dp116
g8
F992.33333333333337
sg9
F1
sg10
(lp117
g12
(F-24
F-49
tRp118
ag12
(F24
F-49
tRp119
ag12
(F24
F49
tRp120
ag12
(F-24
F49
tRp121
asg17
F1000
sg18
g12
(F525.31958408615287
F165
tRp122
sg20
F0
sa(dp123
g8
F992.33333333333337
sg9
F1
sg10
(lp124
g12
(F-24
F-49
tRp125
ag12
(F24
F-49
tRp126
ag12
(F24
F49
tRp127
ag12
(F-24
F49
tRp128
asg17
F1000
sg18
g12
(F522.80107220501407
F265
tRp129
sg20
F0
sasg49
(dp130
g51
g12
(F0
F0
tRp131
sg53
I10
ssa(dp132
g5
(lp133
(dp134
g8
Finf
sg9
Finf
sg10
(lp135
g12
(F-499
F-9
tRp136
ag12
(F499
F-9
tRp137
ag12
(F499
F9
tRp138
ag12
(F-499
F9
tRp139
asg17
F1000
sg18
g12
(F500
F5
tRp140
sg20
F0
sa(dp141
g8
F992.33333333333337
sg9
F1
sg10
(lp142
g12
(F-49
F-24
tRp143
ag12
(F49
F-24
tRp144
ag12
(F49
F24
tRp145
ag12
(F-49
F24
tRp146
asg17
F1000
sg18
g12
(F500
F40
tRp147
sg20
F0
sa(dp148
g8
F992.33333333333337
sg9
F1
sg10
(lp149
g12
(F-24
F-49
tRp150
ag12
(F24
F-49
tRp151
ag12
(F24
F49
tRp152
ag12
(F-24
F49
tRp153
asg17
F1000
sg18
g12
(F518.47863169345703
F115
tRp154
sg20
F0
sa(dp155
g8
F992.33333333333337
sg9
F1
sg10
(lp156
g12
(F-24
F-49
tRp157
ag12
(F24
F-49
tRp158
ag12
(F24
F49
tRp159
ag12
(F-24
F49
tRp160
asg17
F1000
sg18
g12
(F557.95259756182077
F215
tRp161
sg20
F0
sa(dp162
g8
F992.33333333333337
sg9
F1
sg10
(lp163
g12
(F-24
F-49
tRp164
ag12
(F24
F-49
tRp165
ag12
(F24
F49
tRp166
ag12
(F-24
F49
tRp167
asg17
F1000
sg18
g12
(F571.6884261006154
F315
tRp168
sg20
F0
sasg49
(dp169
g51
g12
(F0
F0
tRp170
sg53
I10
ssa(dp171
g5
(lp172
(dp173
g8
Finf
sg9
Finf
sg10
(lp174
g12
(F-499
F-9
tRp175
ag12
(F499
F-9
tRp176
ag12
(F499
F9
tRp177
ag12
(F-499
F9
tRp178
asg17
F1000
sg18
g12
(F500
F5
tRp179
sg20
F0
sa(dp180
g8
F992.33333333333337
sg9
F1
sg10
(lp181
g12
(F-49
F-24
tRp182
ag12
(F49
F-24
tRp183
ag12
(F49
F24
tRp184
ag12
(F-49
F24
tRp185
asg17
F1000
sg18
g12
(F500
F40
tRp186
sg20
F0
sa(dp187
g8
F992.33333333333337
sg9
F1
sg10
(lp188
g12
(F-49
F-24
tRp189
ag12
(F49
F-24
tRp190
ag12
(F49
F24
tRp191
ag12
(F-49
F24
tRp192
asg17
F1000
sg18
g12
(F516.82112335460567
F90
tRp193
sg20
F0
sa(dp194
g8
F992.33333333333337
sg9
F1
sg10
(lp195
g12
(F-24
F-49
tRp196
ag12
(F24
F-49
tRp197
ag12
(F24
F49
tRp198
ag12
(F-24
F49
tRp199
asg17
F1000
sg18
g12
(F545.93499832527141
F165
tRp200
sg20
F0
sa(dp201
g8
F992.33333333333337
sg9
F1
sg10
(lp202
g12
(F-49
F-24
tRp203
ag12
(F49
F-24
tRp204
ag12
(F49
F24
tRp205
ag12
(F-49
F24
tRp206
asg17
F1000
sg18
g12
(F520.08894552153333
F240
tRp207
sg20
F0
sasg49
(dp208
g51
g12
(F0
F0
tRp209
sg53
I10
ssa(dp210
g5
(lp211
(dp212
g8
Finf
sg9
Finf
sg10
(lp213
g12
(F-499
F-9
tRp214
ag12
(F499
F-9
tRp215
ag12
(F499
F9
tRp216
ag12
(F-499
F9
tRp217
asg17
F1000
sg18
g12
(F500
F5
tRp218
sg20
F0
sa(dp219
g8
F992.33333333333337
sg9
F1
sg10
(lp220
g12
(F-49
F-24
tRp221
ag12
(F49
F-24
tRp222
ag12
(F49
F24
tRp223
ag12
(F-49
F24
tRp224
asg17
F1000
sg18
g12
(F500
F40
tRp225
sg20
F0
sa(dp226
g8
F992.33333333333337
sg9
F1
sg10
(lp227
g12
(F-24
F-49
tRp228
ag12
(F24
F-49
tRp229
ag12
(F24
F49
tRp230
ag12
(F-24
F49
tRp231
asg17
F1000
sg18
g12
(F545.44180263667613
F115
tRp232
sg20
F0
sa(dp233
g8
F992.33333333333337
sg9
F1
sg10
(lp234
g12
(F-49
F-24
tRp235
ag12
(F49
F-24
tRp236
ag12
(F49
F24
tRp237
ag12
(F-49
F24
tRp238
asg17
F1000
sg18
g12
(F568.73443293512923
F190
tRp239
sg20
F0
sa(dp240
g8
F992.33333333333337
sg9
F1
sg10
(lp241
g12
(F-24
F-49
tRp242
ag12
(F24
F-49
tRp243
ag12
(F24
F49
tRp244
ag12
(F-24
F49
tRp245
asg17
F1000
sg18
g12
(F514.69277884890028
F265
tRp246
sg20
F0
sasg49
(dp247
g51
g12
(F0
F0
tRp248
sg53
I10
ssa(dp249
g5
(lp250
(dp251
g8
Finf
sg9
Finf
sg10
(lp252
g12
(F-499
F-9
tRp253
ag12
(F499
F-9
tRp254
ag12
(F499
F9
tRp255
ag12
(F-499
F9
tRp256
asg17
F1000
sg18
g12
(F500
F5
tRp257
sg20
F0
sa(dp258
g8
F992.33333333333337
sg9
F1
sg10
(lp259
g12
(F-49
F-24
tRp260
ag12
(F49
F-24
tRp261
ag12
(F49
F24
tRp262
ag12
(F-49
F24
tRp263
asg17
F1000
sg18
g12
(F500
F40
tRp264
sg20
F0
sa(dp265
g8
F992.33333333333337
sg9
F1
sg10
(lp266
g12
(F-49
F-24
tRp267
ag12
(F49
F-24
tRp268
ag12
(F49
F24
tRp269
ag12
(F-49
F24
tRp270
asg17
F1000
sg18
g12
(F489.1660246172994
F90
tRp271
sg20
F0
sa(dp272
g8
F992.33333333333337
sg9
F1
sg10
(lp273
g12
(F-24
F-49
tRp274
ag12
(F24
F-49
tRp275
ag12
(F24
F49
tRp276
ag12
(F-24
F49
tRp277
asg17
F1000
sg18
g12
(F532.18815666995249
F165
tRp278
sg20
F0
sa(dp279
g8
F992.33333333333337
sg9
F1
sg10
(lp280
g12
(F-24
F-49
tRp281
ag12
(F24
F-49
tRp282
ag12
(F24
F49
tRp283
ag12
(F-24
F49
tRp284
asg17
F1000
sg18
g12
(F486.80588569103998
F265
tRp285
sg20
F0
sasg49
(dp286
g51
g12
(F0
F0
tRp287
sg53
I10
ssa(dp288
g5
(lp289
(dp290
g8
Finf
sg9
Finf
sg10
(lp291
g12
(F-499
F-9
tRp292
ag12
(F499
F-9
tRp293
ag12
(F499
F9
tRp294
ag12
(F-499
F9
tRp295
asg17
F1000
sg18
g12
(F500
F5
tRp296
sg20
F0
sa(dp297
g8
F992.33333333333337
sg9
F1
sg10
(lp298
g12
(F-49
F-24
tRp299
ag12
(F49
F-24
tRp300
ag12
(F49
F24
tRp301
ag12
(F-49
F24
tRp302
asg17
F1000
sg18
g12
(F500
F40
tRp303
sg20
F0
sa(dp304
g8
F992.33333333333337
sg9
F1
sg10
(lp305
g12
(F-49
F-24
tRp306
ag12
(F49
F-24
tRp307
ag12
(F49
F24
tRp308
ag12
(F-49
F24
tRp309
asg17
F1000
sg18
g12
(F562.16677185146193
F90
tRp310
sg20
F0
sa(dp311
g8
F992.33333333333337
sg9
F1
sg10
(lp312
g12
(F-24
F-49
tRp313
ag12
(F24
F-49
tRp314
ag12
(F24
F49
tRp315
ag12
(F-24
F49
tRp316
asg17
F1000
sg18
g12
(F581.86697939097587
F165
tRp317
sg20
F0
sa(dp318
g8
F992.33333333333337
sg9
F1
sg10
(lp319
g12
(F-24
F-49
tRp320
ag12
(F24
F-49
tRp321
ag12
(F24
F49
tRp322
ag12
(F-24
F49
tRp323
asg17
F1000
sg18
g12
(F569.78505287036171
F265
tRp324
sg20
F0
sasg49
(dp325
g51
g12
(F0
F0
tRp326
sg53
I10
ssa(dp327
g5
(lp328
(dp329
g8
Finf
sg9
Finf
sg10
(lp330
g12
(F-499
F-9
tRp331
ag12
(F499
F-9
tRp332
ag12
(F499
F9
tRp333
ag12
(F-499
F9
tRp334
asg17
F1000
sg18
g12
(F500
F5
tRp335
sg20
F0
sa(dp336
g8
F992.33333333333337
sg9
F1
sg10
(lp337
g12
(F-49
F-24
tRp338
ag12
(F49
F-24
tRp339
ag12
(F49
F24
tRp340
ag12
(F-49
F24
tRp341
asg17
F1000
sg18
g12
(F500
F40
tRp342
sg20
F0
sa(dp343
g8
F992.33333333333337
sg9
F1
sg10
(lp344
g12
(F-49
F-24
tRp345
ag12
(F49
F-24
tRp346
ag12
(F49
F24
tRp347
ag12
(F-49
F24
tRp348
asg17
F1000
sg18
g12
(F473.27967328902196
F90
tRp349
sg20
F0
sa(dp350
g8
F992.33333333333337
sg9
F1
sg10
(lp351
g12
(F-24
F-49
tRp352
ag12
(F24
F-49
tRp353
ag12
(F24
F49
tRp354
ag12
(F-24
F49
tRp355
asg17
F1000
sg18
g12
(F472.08214449112972
F165
tRp356
sg20
F0
sa(dp357
g8
F992.33333333333337
sg9
F1
sg10
(lp358
g12
(F-24
F-49
tRp359
ag12
(F24
F-49
tRp360
ag12
(F24
F49
tRp361
ag12
(F-24
F49
tRp362
asg17
F1000
sg18
g12
(F465.96113215163984
F265
tRp363
sg20
F0
sasg49
(dp364
g51
g12
(F0
F0
tRp365
sg53
I10
ssa(dp366
g5
(lp367
(dp368
g8
Finf
sg9
Finf
sg10
(lp369
g12
(F-499
F-9
tRp370
ag12
(F499
F-9
tRp371
ag12
(F499
F9
tRp372
ag12
(F-499
F9
tRp373
asg17
F1000
sg18
g12
(F500
F5
tRp374
sg20
F0
sa(dp375
g8
F992.33333333333337
sg9
F1
sg10
(lp376
g12
(F-49
F-24
tRp377
ag12
(F49
F-24
tRp378
ag12
(F49
F24
tRp379
ag12
(F-49
F24
tRp380
asg17
F1000
sg18
g12
(F500
F40
tRp381
sg20
F0
sa(dp382
g8
F992.33333333333337
sg9
F1
sg10
(lp383
g12
(F-49
F-24
tRp384
ag12
(F49
F-24
tRp385
ag12
(F49
F24
tRp386
ag12
(F-49
F24
tRp387
asg17
F1000
sg18
g12
(F498.69543939082604
F90
tRp388
sg20
F0
sa(dp389
g8
F992.33333333333337
sg9
F1
sg10
(lp390
g12
(F-24
F-49
tRp391
ag12
(F24
F-49
tRp392
ag12
(F24
F49
tRp393
ag12
(F-24
F49
tRp394
asg17
F1000
sg18
g12
(F498.3807122498406
F165
tRp395
sg20
F0
sa(dp396
g8
F992.33333333333337
sg9
F1
sg10
(lp397
g12
(F-24
F-49
tRp398
ag12
(F24
F-49
tRp399
ag12
(F24
F49
tRp400
ag12
(F-24
F49
tRp401
asg17
F1000
sg18
g12
(F488.10561561696949
F265
tRp402
sg20
F0
sasg49
(dp403
g51
g12
(F0
F0
tRp404
sg53
I10
ssa(dp405
g5
(lp406
(dp407
g8
Finf
sg9
Finf
sg10
(lp408
g12
(F-499
F-9
tRp409
ag12
(F499
F-9
tRp410
ag12
(F499
F9
tRp411
ag12
(F-499
F9
tRp412
asg17
F1000
sg18
g12
(F500
F5
tRp413
sg20
F0
sa(dp414
g8
F992.33333333333337
sg9
F1
sg10
(lp415
g12
(F-49
F-24
tRp416
ag12
(F49
F-24
tRp417
ag12
(F49
F24
tRp418
ag12
(F-49
F24
tRp419
asg17
F1000
sg18
g12
(F500
F40
tRp420
sg20
F0
sa(dp421
g8
F992.33333333333337
sg9
F1
sg10
(lp422
g12
(F-49
F-24
tRp423
ag12
(F49
F-24
tRp424
ag12
(F49
F24
tRp425
ag12
(F-49
F24
tRp426
asg17
F1000
sg18
g12
(F594.1324981061282
F90
tRp427
sg20
F0
sa(dp428
g8
F992.33333333333337
sg9
F1
sg10
(lp429
g12
(F-24
F-49
tRp430
ag12
(F24
F-49
tRp431
ag12
(F24
F49
tRp432
ag12
(F-24
F49
tRp433
asg17
F1000
sg18
g12
(F618.10418408201792
F165
tRp434
sg20
F0
sa(dp435
g8
F992.33333333333337
sg9
F1
sg10
(lp436
g12
(F-49
F-24
tRp437
ag12
(F49
F-24
tRp438
ag12
(F49
F24
tRp439
ag12
(F-49
F24
tRp440
asg17
F1000
sg18
g12
(F645.50037781165781
F240
tRp441
sg20
F0
sasg49
(dp442
g51
g12
(F0
F0
tRp443
sg53
I10
ssa(dp444
g5
(lp445
(dp446
g8
Finf
sg9
Finf
sg10
(lp447
g12
(F-499
F-9
tRp448
ag12
(F499
F-9
tRp449
ag12
(F499
F9
tRp450
ag12
(F-499
F9
tRp451
asg17
F1000
sg18
g12
(F500
F5
tRp452
sg20
F0
sa(dp453
g8
F992.33333333333337
sg9
F1
sg10
(lp454
g12
(F-49
F-24
tRp455
ag12
(F49
F-24
tRp456
ag12
(F49
F24
tRp457
ag12
(F-49
F24
tRp458
asg17
F1000
sg18
g12
(F500
F40
tRp459
sg20
F0
sa(dp460
g8
F992.33333333333337
sg9
F1
sg10
(lp461
g12
(F-49
F-24
tRp462
ag12
(F49
F-24
tRp463
ag12
(F49
F24
tRp464
ag12
(F-49
F24
tRp465
asg17
F1000
sg18
g12
(F592.83980287971656
F90
tRp466
sg20
F0
sa(dp467
g8
F992.33333333333337
sg9
F1
sg10
(lp468
g12
(F-49
F-24
tRp469
ag12
(F49
F-24
tRp470
ag12
(F49
F24
tRp471
ag12
(F-49
F24
tRp472
asg17
F1000
sg18
g12
(F571.58745417930913
F140
tRp473
sg20
F0
sa(dp474
g8
F992.33333333333337
sg9
F1
sg10
(lp475
g12
(F-49
F-24
tRp476
ag12
(F49
F-24
tRp477
ag12
(F49
F24
tRp478
ag12
(F-49
F24
tRp479
asg17
F1000
sg18
g12
(F572.35733183405011
F190
tRp480
sg20
F0
sasg49
(dp481
g51
g12
(F0
F0
tRp482
sg53
I10
ssa(dp483
g5
(lp484
(dp485
g8
Finf
sg9
Finf
sg10
(lp486
g12
(F-499
F-9
tRp487
ag12
(F499
F-9
tRp488
ag12
(F499
F9
tRp489
ag12
(F-499
F9
tRp490
asg17
F1000
sg18
g12
(F500
F5
tRp491
sg20
F0
sa(dp492
g8
F992.33333333333337
sg9
F1
sg10
(lp493
g12
(F-49
F-24
tRp494
ag12
(F49
F-24
tRp495
ag12
(F49
F24
tRp496
ag12
(F-49
F24
tRp497
asg17
F1000
sg18
g12
(F500
F40
tRp498
sg20
F0
sa(dp499
g8
F992.33333333333337
sg9
F1
sg10
(lp500
g12
(F-24
F-49
tRp501
ag12
(F24
F-49
tRp502
ag12
(F24
F49
tRp503
ag12
(F-24
F49
tRp504
asg17
F1000
sg18
g12
(F526.4257180546756
F115
tRp505
sg20
F0
sa(dp506
g8
F992.33333333333337
sg9
F1
sg10
(lp507
g12
(F-49
F-24
tRp508
ag12
(F49
F-24
tRp509
ag12
(F49
F24
tRp510
ag12
(F-49
F24
tRp511
asg17
F1000
sg18
g12
(F581.10921329577832
F190
tRp512
sg20
F0
sa(dp513
g8
F992.33333333333337
sg9
F1
sg10
(lp514
g12
(F-49
F-24
tRp515
ag12
(F49
F-24
tRp516
ag12
(F49
F24
tRp517
ag12
(F-49
F24
tRp518
asg17
F1000
sg18
g12
(F613.58311400343882
F240
tRp519
sg20
F0
sasg49
(dp520
g51
g12
(F0
F0
tRp521
sg53
I10
ssa(dp522
g5
(lp523
(dp524
g8
Finf
sg9
Finf
sg10
(lp525
g12
(F-499
F-9
tRp526
ag12
(F499
F-9
tRp527
ag12
(F499
F9
tRp528
ag12
(F-499
F9
tRp529
asg17
F1000
sg18
g12
(F500
F5
tRp530
sg20
F0
sa(dp531
g8
F992.33333333333337
sg9
F1
sg10
(lp532
g12
(F-49
F-24
tRp533
ag12
(F49
F-24
tRp534
ag12
(F49
F24
tRp535
ag12
(F-49
F24
tRp536
asg17
F1000
sg18
g12
(F500
F40
tRp537
sg20
F0
sa(dp538
g8
F992.33333333333337
sg9
F1
sg10
(lp539
g12
(F-24
F-49
tRp540
ag12
(F24
F-49
tRp541
ag12
(F24
F49
tRp542
ag12
(F-24
F49
tRp543
asg17
F1000
sg18
g12
(F491.84511870483607
F115
tRp544
sg20
F0
sa(dp545
g8
F992.33333333333337
sg9
F1
sg10
(lp546
g12
(F-24
F-49
tRp547
ag12
(F24
F-49
tRp548
ag12
(F24
F49
tRp549
ag12
(F-24
F49
tRp550
asg17
F1000
sg18
g12
(F512.05206385750512
F215
tRp551
sg20
F0
sa(dp552
g8
F992.33333333333337
sg9
F1
sg10
(lp553
g12
(F-49
F-24
tRp554
ag12
(F49
F-24
tRp555
ag12
(F49
F24
tRp556
ag12
(F-49
F24
tRp557
asg17
F1000
sg18
g12
(F440.18527415944504
F290
tRp558
sg20
F0
sasg49
(dp559
g51
g12
(F0
F0
tRp560
sg53
I10
ssa(dp561
g5
(lp562
(dp563
g8
Finf
sg9
Finf
sg10
(lp564
g12
(F-499
F-9
tRp565
ag12
(F499
F-9
tRp566
ag12
(F499
F9
tRp567
ag12
(F-499
F9
tRp568
asg17
F1000
sg18
g12
(F500
F5
tRp569
sg20
F0
sa(dp570
g8
F992.33333333333337
sg9
F1
sg10
(lp571
g12
(F-49
F-24
tRp572
ag12
(F49
F-24
tRp573
ag12
(F49
F24
tRp574
ag12
(F-49
F24
tRp575
asg17
F1000
sg18
g12
(F500
F40
tRp576
sg20
F0
sa(dp577
g8
F992.33333333333337
sg9
F1
sg10
(lp578
g12
(F-49
F-24
tRp579
ag12
(F49
F-24
tRp580
ag12
(F49
F24
tRp581
ag12
(F-49
F24
tRp582
asg17
F1000
sg18
g12
(F514.73988466164883
F90
tRp583
sg20
F0
sa(dp584
g8
F992.33333333333337
sg9
F1
sg10
(lp585
g12
(F-49
F-24
tRp586
ag12
(F49
F-24
tRp587
ag12
(F49
F24
tRp588
ag12
(F-49
F24
tRp589
asg17
F1000
sg18
g12
(F539.49266665009804
F140
tRp590
sg20
F0
sa(dp591
g8
F992.33333333333337
sg9
F1
sg10
(lp592
g12
(F-49
F-24
tRp593
ag12
(F49
F-24
tRp594
ag12
(F49
F24
tRp595
ag12
(F-49
F24
tRp596
asg17
F1000
sg18
g12
(F569.30272350960729
F190
tRp597
sg20
F0
sasg49
(dp598
g51
g12
(F0
F0
tRp599
sg53
I10
ssa(dp600
g5
(lp601
(dp602
g8
Finf
sg9
Finf
sg10
(lp603
g12
(F-499
F-9
tRp604
ag12
(F499
F-9
tRp605
ag12
(F499
F9
tRp606
ag12
(F-499
F9
tRp607
asg17
F1000
sg18
g12
(F500
F5
tRp608
sg20
F0
sa(dp609
g8
F992.33333333333337
sg9
F1
sg10
(lp610
g12
(F-49
F-24
tRp611
ag12
(F49
F-24
tRp612
ag12
(F49
F24
tRp613
ag12
(F-49
F24
tRp614
asg17
F1000
sg18
g12
(F500
F40
tRp615
sg20
F0
sa(dp616
g8
F992.33333333333337
sg9
F1
sg10
(lp617
g12
(F-24
F-49
tRp618
ag12
(F24
F-49
tRp619
ag12
(F24
F49
tRp620
ag12
(F-24
F49
tRp621
asg17
F1000
sg18
g12
(F502.37842802150135
F115
tRp622
sg20
F0
sa(dp623
g8
F992.33333333333337
sg9
F1
sg10
(lp624
g12
(F-24
F-49
tRp625
ag12
(F24
F-49
tRp626
ag12
(F24
F49
tRp627
ag12
(F-24
F49
tRp628
asg17
F1000
sg18
g12
(F502.77239672501423
F215
tRp629
sg20
F0
sa(dp630
g8
F992.33333333333337
sg9
F1
sg10
(lp631
g12
(F-24
F-49
tRp632
ag12
(F24
F-49
tRp633
ag12
(F24
F49
tRp634
ag12
(F-24
F49
tRp635
asg17
F1000
sg18
g12
(F526.50330942255778
F315
tRp636
sg20
F0
sasg49
(dp637
g51
g12
(F0
F0
tRp638
sg53
I10
ssa(dp639
g5
(lp640
(dp641
g8
Finf
sg9
Finf
sg10
(lp642
g12
(F-499
F-9
tRp643
ag12
(F499
F-9
tRp644
ag12
(F499
F9
tRp645
ag12
(F-499
F9
tRp646
asg17
F1000
sg18
g12
(F500
F5
tRp647
sg20
F0
sa(dp648
g8
F992.33333333333337
sg9
F1
sg10
(lp649
g12
(F-49
F-24
tRp650
ag12
(F49
F-24
tRp651
ag12
(F49
F24
tRp652
ag12
(F-49
F24
tRp653
asg17
F1000
sg18
g12
(F500
F40
tRp654
sg20
F0
sa(dp655
g8
F992.33333333333337
sg9
F1
sg10
(lp656
g12
(F-49
F-24
tRp657
ag12
(F49
F-24
tRp658
ag12
(F49
F24
tRp659
ag12
(F-49
F24
tRp660
asg17
F1000
sg18
g12
(F546.96038485355325
F90
tRp661
sg20
F0
sa(dp662
g8
F992.33333333333337
sg9
F1
sg10
(lp663
g12
(F-24
F-49
tRp664
ag12
(F24
F-49
tRp665
ag12
(F24
F49
tRp666
ag12
(F-24
F49
tRp667
asg17
F1000
sg18
g12
(F526.33586540626447
F165
tRp668
sg20
F0
sa(dp669
g8
F992.33333333333337
sg9
F1
sg10
(lp670
g12
(F-24
F-49
tRp671
ag12
(F24
F-49
tRp672
ag12
(F24
F49
tRp673
ag12
(F-24
F49
tRp674
asg17
F1000
sg18
g12
(F524.25475394750038
F265
tRp675
sg20
F0
sasg49
(dp676
g51
g12
(F0
F0
tRp677
sg53
I10
ssa(dp678
g5
(lp679
(dp680
g8
Finf
sg9
Finf
sg10
(lp681
g12
(F-499
F-9
tRp682
ag12
(F499
F-9
tRp683
ag12
(F499
F9
tRp684
ag12
(F-499
F9
tRp685
asg17
F1000
sg18
g12
(F500
F5
tRp686
sg20
F0
sa(dp687
g8
F992.33333333333337
sg9
F1
sg10
(lp688
g12
(F-49
F-24
tRp689
ag12
(F49
F-24
tRp690
ag12
(F49
F24
tRp691
ag12
(F-49
F24
tRp692
asg17
F1000
sg18
g12
(F500
F40
tRp693
sg20
F0
sa(dp694
g8
F992.33333333333337
sg9
F1
sg10
(lp695
g12
(F-49
F-24
tRp696
ag12
(F49
F-24
tRp697
ag12
(F49
F24
tRp698
ag12
(F-49
F24
tRp699
asg17
F1000
sg18
g12
(F425.82553892311927
F90
tRp700
sg20
F0
sa(dp701
g8
F992.33333333333337
sg9
F1
sg10
(lp702
g12
(F-49
F-24
tRp703
ag12
(F49
F-24
tRp704
ag12
(F49
F24
tRp705
ag12
(F-49
F24
tRp706
asg17
F1000
sg18
g12
(F492.25946152321467
F140
tRp707
sg20
F0
sa(dp708
g8
F992.33333333333337
sg9
F1
sg10
(lp709
g12
(F-49
F-24
tRp710
ag12
(F49
F-24
tRp711
ag12
(F49
F24
tRp712
ag12
(F-49
F24
tRp713
asg17
F1000
sg18
g12
(F457.05153193396808
F190
tRp714
sg20
F0
sasg49
(dp715
g51
g12
(F0
F0
tRp716
sg53
I10
ssa(dp717
g5
(lp718
(dp719
g8
Finf
sg9
Finf
sg10
(lp720
g12
(F-499
F-9
tRp721
ag12
(F499
F-9
tRp722
ag12
(F499
F9
tRp723
ag12
(F-499
F9
tRp724
asg17
F1000
sg18
g12
(F500
F5
tRp725
sg20
F0
sa(dp726
g8
F992.33333333333337
sg9
F1
sg10
(lp727
g12
(F-49
F-24
tRp728
ag12
(F49
F-24
tRp729
ag12
(F49
F24
tRp730
ag12
(F-49
F24
tRp731
asg17
F1000
sg18
g12
(F500
F40
tRp732
sg20
F0
sa(dp733
g8
F992.33333333333337
sg9
F1
sg10
(lp734
g12
(F-24
F-49
tRp735
ag12
(F24
F-49
tRp736
ag12
(F24
F49
tRp737
ag12
(F-24
F49
tRp738
asg17
F1000
sg18
g12
(F503.79768227379554
F115
tRp739
sg20
F0
sa(dp740
g8
F992.33333333333337
sg9
F1
sg10
(lp741
g12
(F-24
F-49
tRp742
ag12
(F24
F-49
tRp743
ag12
(F24
F49
tRp744
ag12
(F-24
F49
tRp745
asg17
F1000
sg18
g12
(F502.54462803416288
F215
tRp746
sg20
F0
sa(dp747
g8
F992.33333333333337
sg9
F1
sg10
(lp748
g12
(F-49
F-24
tRp749
ag12
(F49
F-24
tRp750
ag12
(F49
F24
tRp751
ag12
(F-49
F24
tRp752
asg17
F1000
sg18
g12
(F515.58378092427813
F290
tRp753
sg20
F0
sasg49
(dp754
g51
g12
(F0
F0
tRp755
sg53
I10
ssa(dp756
g5
(lp757
(dp758
g8
Finf
sg9
Finf
sg10
(lp759
g12
(F-499
F-9
tRp760
ag12
(F499
F-9
tRp761
ag12
(F499
F9
tRp762
ag12
(F-499
F9
tRp763
asg17
F1000
sg18
g12
(F500
F5
tRp764
sg20
F0
sa(dp765
g8
F992.33333333333337
sg9
F1
sg10
(lp766
g12
(F-49
F-24
tRp767
ag12
(F49
F-24
tRp768
ag12
(F49
F24
tRp769
ag12
(F-49
F24
tRp770
asg17
F1000
sg18
g12
(F500
F40
tRp771
sg20
F0
sa(dp772
g8
F992.33333333333337
sg9
F1
sg10
(lp773
g12
(F-49
F-24
tRp774
ag12
(F49
F-24
tRp775
ag12
(F49
F24
tRp776
ag12
(F-49
F24
tRp777
asg17
F1000
sg18
g12
(F478.9007407166693
F90
tRp778
sg20
F0
sa(dp779
g8
F992.33333333333337
sg9
F1
sg10
(lp780
g12
(F-49
F-24
tRp781
ag12
(F49
F-24
tRp782
ag12
(F49
F24
tRp783
ag12
(F-49
F24
tRp784
asg17
F1000
sg18
g12
(F507.1019161628048
F140
tRp785
sg20
F0
sa(dp786
g8
F992.33333333333337
sg9
F1
sg10
(lp787
g12
(F-24
F-49
tRp788
ag12
(F24
F-49
tRp789
ag12
(F24
F49
tRp790
ag12
(F-24
F49
tRp791
asg17
F1000
sg18
g12
(F495.97946510719754
F215
tRp792
sg20
F0
sasg49
(dp793
g51
g12
(F0
F0
tRp794
sg53
I10
ssasS'label'
p795
(lp796
ccollections
OrderedDict
p797
((lp798
(lp799
(I500
I40
tp800
aI01
aa(lp801
(I508
I90
tp802
aI01
aa(lp803
(I495
I140
tp804
aI01
aa(lp805
(I538
I190
tp806
aI01
aatRp807
ag797
((lp808
(lp809
(I500
I40
tp810
aI01
aa(lp811
(I532
I115
tp812
aI00
aa(lp813
(I548
I215
tp814
aI00
aa(lp815
(I576
I290
tp816
aI00
aatRp817
ag797
((lp818
(lp819
(I500
I40
tp820
aI01
aa(lp821
(I524
I90
tp822
aI01
aa(lp823
(I525
I165
tp824
aI01
aa(lp825
(I522
I265
tp826
aI01
aatRp827
ag797
((lp828
(lp829
(I500
I40
tp830
aI01
aa(lp831
(I518
I115
tp832
aI00
aa(lp833
(I557
I215
tp834
aI00
aa(lp835
(I571
I315
tp836
aI00
aatRp837
ag797
((lp838
(lp839
(I500
I40
tp840
aI01
aa(lp841
(I516
I90
tp842
aI01
aa(lp843
(I545
I165
tp844
aI01
aa(lp845
(I520
I240
tp846
aI00
aatRp847
ag797
((lp848
(lp849
(I500
I40
tp850
aI01
aa(lp851
(I545
I115
tp852
aI01
aa(lp853
(I568
I190
tp854
aI01
aa(lp855
(I514
I265
tp856
aI00
aatRp857
ag797
((lp858
(lp859
(I500
I40
tp860
aI01
aa(lp861
(I489
I90
tp862
aI01
aa(lp863
(I532
I165
tp864
aI01
aa(lp865
(I486
I265
tp866
aI00
aatRp867
ag797
((lp868
(lp869
(I500
I40
tp870
aI00
aa(lp871
(I562
I90
tp872
aI00
aa(lp873
(I581
I165
tp874
aI00
aa(lp875
(I569
I265
tp876
aI00
aatRp877
ag797
((lp878
(lp879
(I500
I40
tp880
aI01
aa(lp881
(I473
I90
tp882
aI01
aa(lp883
(I472
I165
tp884
aI01
aa(lp885
(I465
I265
tp886
aI01
aatRp887
ag797
((lp888
(lp889
(I500
I40
tp890
aI01
aa(lp891
(I498
I90
tp892
aI01
aa(lp893
(I498
I165
tp894
aI01
aa(lp895
(I488
I265
tp896
aI01
aatRp897
ag797
((lp898
(lp899
(I500
I40
tp900
aI00
aa(lp901
(I594
I90
tp902
aI00
aa(lp903
(I618
I165
tp904
aI00
aa(lp905
(I645
I240
tp906
aI00
aatRp907
ag797
((lp908
(lp909
(I500
I40
tp910
aI00
aa(lp911
(I592
I90
tp912
aI00
aa(lp913
(I571
I140
tp914
aI00
aa(lp915
(I572
I190
tp916
aI00
aatRp917
ag797
((lp918
(lp919
(I500
I40
tp920
aI00
aa(lp921
(I526
I115
tp922
aI00
aa(lp923
(I581
I190
tp924
aI00
aa(lp925
(I613
I240
tp926
aI00
aatRp927
ag797
((lp928
(lp929
(I500
I40
tp930
aI01
aa(lp931
(I491
I115
tp932
aI01
aa(lp933
(I512
I215
tp934
aI00
aa(lp935
(I440
I290
tp936
aI00
aatRp937
ag797
((lp938
(lp939
(I500
I40
tp940
aI01
aa(lp941
(I514
I90
tp942
aI01
aa(lp943
(I539
I140
tp944
aI01
aa(lp945
(I569
I190
tp946
aI01
aatRp947
ag797
((lp948
(lp949
(I500
I40
tp950
aI01
aa(lp951
(I502
I115
tp952
aI01
aa(lp953
(I502
I215
tp954
aI01
aa(lp955
(I526
I315
tp956
aI01
aatRp957
ag797
((lp958
(lp959
(I500
I40
tp960
aI01
aa(lp961
(I546
I90
tp962
aI01
aa(lp963
(I526
I165
tp964
aI01
aa(lp965
(I524
I265
tp966
aI01
aatRp967
ag797
((lp968
(lp969
(I500
I40
tp970
aI01
aa(lp971
(I425
I90
tp972
aI01
aa(lp973
(I492
I140
tp974
aI01
aa(lp975
(I457
I190
tp976
aI01
aatRp977
ag797
((lp978
(lp979
(I500
I40
tp980
aI01
aa(lp981
(I503
I115
tp982
aI01
aa(lp983
(I502
I215
tp984
aI01
aa(lp985
(I515
I290
tp986
aI01
aatRp987
ag797
((lp988
(lp989
(I500
I40
tp990
aI01
aa(lp991
(I478
I90
tp992
aI01
aa(lp993
(I507
I140
tp994
aI01
aa(lp995
(I495
I215
tp996
aI01
aatRp997
as.