(dp1
S'data'
p2
(lp3
(dp4
S'blocks'
p5
(lp6
(dp7
S'moment'
p8
Finf
sS'mass'
p9
Finf
sS'vert'
p10
(lp11
cpymunk.vec2d
Vec2d
p12
(F-499
F-9
tRp13
ag12
(F499
F-9
tRp14
ag12
(F499
F9
tRp15
ag12
(F-499
F9
tRp16
asS'fric'
p17
F1
sS'pos'
p18
g12
(F500
F5
tRp19
sS'elas'
p20
F0
sa(dp21
g8
F992.33333333333337
sg9
F1
sg10
(lp22
g12
(F-24
F-49
tRp23
ag12
(F24
F-49
tRp24
ag12
(F24
F49
tRp25
ag12
(F-24
F49
tRp26
asg17
F1
sg18
g12
(F405.36653580376259
F65
tRp27
sg20
F0
sa(dp28
g8
F992.33333333333337
sg9
F1
sg10
(lp29
g12
(F-24
F-49
tRp30
ag12
(F24
F-49
tRp31
ag12
(F24
F49
tRp32
ag12
(F-24
F49
tRp33
asg17
F1
sg18
g12
(F484.46190354979569
F65
tRp34
sg20
F0
sa(dp35
g8
F992.33333333333337
sg9
F1
sg10
(lp36
g12
(F-24
F-49
tRp37
ag12
(F24
F-49
tRp38
ag12
(F24
F49
tRp39
ag12
(F-24
F49
tRp40
asg17
F1
sg18
g12
(F435.69223027938676
F165
tRp41
sg20
F0
sa(dp42
g8
F992.33333333333337
sg9
F1
sg10
(lp43
g12
(F-24
F-49
tRp44
ag12
(F24
F-49
tRp45
ag12
(F24
F49
tRp46
ag12
(F-24
F49
tRp47
asg17
F1
sg18
g12
(F494.90372618722301
F165
tRp48
sg20
F0
sa(dp49
g8
F992.33333333333337
sg9
F1
sg10
(lp50
g12
(F-49
F-24
tRp51
ag12
(F49
F-24
tRp52
ag12
(F49
F24
tRp53
ag12
(F-49
F24
tRp54
asg17
F1
sg18
g12
(F541.50324851460584
F240
tRp55
sg20
F0
sa(dp56
g8
F992.33333333333337
sg9
F1
sg10
(lp57
g12
(F-24
F-49
tRp58
ag12
(F24
F-49
tRp59
ag12
(F24
F49
tRp60
ag12
(F-24
F49
tRp61
asg17
F1
sg18
g12
(F425.3703724166499
F265
tRp62
sg20
F0
sa(dp63
g8
F992.33333333333337
sg9
F1
sg10
(lp64
g12
(F-49
F-24
tRp65
ag12
(F49
F-24
tRp66
ag12
(F49
F24
tRp67
ag12
(F-49
F24
tRp68
asg17
F1
sg18
g12
(F502.79069112231656
F290
tRp69
sg20
F0
sa(dp70
g8
F992.33333333333337
sg9
F1
sg10
(lp71
g12
(F-24
F-49
tRp72
ag12
(F24
F-49
tRp73
ag12
(F24
F49
tRp74
ag12
(F-24
F49
tRp75
asg17
F1
sg18
g12
(F443.50364190350035
F365
tRp76
sg20
F0
sasS'props'
p77
(dp78
S'gravity'
p79
g12
(F0
F0
tRp80
sS'iterations'
p81
I10
ssa(dp82
g5
(lp83
(dp84
g8
Finf
sg9
Finf
sg10
(lp85
g12
(F-499
F-9
tRp86
ag12
(F499
F-9
tRp87
ag12
(F499
F9
tRp88
ag12
(F-499
F9
tRp89
asg17
F1
sg18
g12
(F500
F5
tRp90
sg20
F0
sa(dp91
g8
F992.33333333333337
sg9
F1
sg10
(lp92
g12
(F-24
F-49
tRp93
ag12
(F24
F-49
tRp94
ag12
(F24
F49
tRp95
ag12
(F-24
F49
tRp96
asg17
F1
sg18
g12
(F399.97586529005923
F65
tRp97
sg20
F0
sa(dp98
g8
F992.33333333333337
sg9
F1
sg10
(lp99
g12
(F-24
F-49
tRp100
ag12
(F24
F-49
tRp101
ag12
(F24
F49
tRp102
ag12
(F-24
F49
tRp103
asg17
F1
sg18
g12
(F571.03271091795352
F65
tRp104
sg20
F0
sa(dp105
g8
F992.33333333333337
sg9
F1
sg10
(lp106
g12
(F-49
F-24
tRp107
ag12
(F49
F-24
tRp108
ag12
(F49
F24
tRp109
ag12
(F-49
F24
tRp110
asg17
F1
sg18
g12
(F473.09375282127314
F140
tRp111
sg20
F0
sa(dp112
g8
F992.33333333333337
sg9
F1
sg10
(lp113
g12
(F-49
F-24
tRp114
ag12
(F49
F-24
tRp115
ag12
(F49
F24
tRp116
ag12
(F-49
F24
tRp117
asg17
F1
sg18
g12
(F578.74628410063542
F140
tRp118
sg20
F0
sa(dp119
g8
F992.33333333333337
sg9
F1
sg10
(lp120
g12
(F-24
F-49
tRp121
ag12
(F24
F-49
tRp122
ag12
(F24
F49
tRp123
ag12
(F-24
F49
tRp124
asg17
F1
sg18
g12
(F396.91099673233055
F165
tRp125
sg20
F0
sa(dp126
g8
F992.33333333333337
sg9
F1
sg10
(lp127
g12
(F-24
F-49
tRp128
ag12
(F24
F-49
tRp129
ag12
(F24
F49
tRp130
ag12
(F-24
F49
tRp131
asg17
F1
sg18
g12
(F480.02004597893938
F215
tRp132
sg20
F0
sa(dp133
g8
F992.33333333333337
sg9
F1
sg10
(lp134
g12
(F-24
F-49
tRp135
ag12
(F24
F-49
tRp136
ag12
(F24
F49
tRp137
ag12
(F-24
F49
tRp138
asg17
F1
sg18
g12
(F601.56175246145608
F215
tRp139
sg20
F0
sa(dp140
g8
F992.33333333333337
sg9
F1
sg10
(lp141
g12
(F-49
F-24
tRp142
ag12
(F49
F-24
tRp143
ag12
(F49
F24
tRp144
ag12
(F-49
F24
tRp145
asg17
F1
sg18
g12
(F475.65518526762821
F290
tRp146
sg20
F0
sa(dp147
g8
F992.33333333333337
sg9
F1
sg10
(lp148
g12
(F-24
F-49
tRp149
ag12
(F24
F-49
tRp150
ag12
(F24
F49
tRp151
ag12
(F-24
F49
tRp152
asg17
F1
sg18
g12
(F581.79688631837496
F315
tRp153
sg20
F0
sasg77
(dp154
g79
g12
(F0
F0
tRp155
sg81
I10
ssa(dp156
g5
(lp157
(dp158
g8
Finf
sg9
Finf
sg10
(lp159
g12
(F-499
F-9
tRp160
ag12
(F499
F-9
tRp161
ag12
(F499
F9
tRp162
ag12
(F-499
F9
tRp163
asg17
F1
sg18
g12
(F500
F5
tRp164
sg20
F0
sa(dp165
g8
F992.33333333333337
sg9
F1
sg10
(lp166
g12
(F-24
F-49
tRp167
ag12
(F24
F-49
tRp168
ag12
(F24
F49
tRp169
ag12
(F-24
F49
tRp170
asg17
F1
sg18
g12
(F438.72830372288183
F65
tRp171
sg20
F0
sa(dp172
g8
F992.33333333333337
sg9
F1
sg10
(lp173
g12
(F-24
F-49
tRp174
ag12
(F24
F-49
tRp175
ag12
(F24
F49
tRp176
ag12
(F-24
F49
tRp177
asg17
F1
sg18
g12
(F515.27481422080268
F65
tRp178
sg20
F0
sa(dp179
g8
F992.33333333333337
sg9
F1
sg10
(lp180
g12
(F-49
F-24
tRp181
ag12
(F49
F-24
tRp182
ag12
(F49
F24
tRp183
ag12
(F-49
F24
tRp184
asg17
F1
sg18
g12
(F508.40494456530757
F140
tRp185
sg20
F0
sa(dp186
g8
F992.33333333333337
sg9
F1
sg10
(lp187
g12
(F-49
F-24
tRp188
ag12
(F49
F-24
tRp189
ag12
(F49
F24
tRp190
ag12
(F-49
F24
tRp191
asg17
F1
sg18
g12
(F559.14678625109866
F190
tRp192
sg20
F0
sa(dp193
g8
F992.33333333333337
sg9
F1
sg10
(lp194
g12
(F-24
F-49
tRp195
ag12
(F24
F-49
tRp196
ag12
(F24
F49
tRp197
ag12
(F-24
F49
tRp198
asg17
F1
sg18
g12
(F483.81172234010364
F215
tRp199
sg20
F0
sa(dp200
g8
F992.33333333333337
sg9
F1
sg10
(lp201
g12
(F-24
F-49
tRp202
ag12
(F24
F-49
tRp203
ag12
(F24
F49
tRp204
ag12
(F-24
F49
tRp205
asg17
F1
sg18
g12
(F477.64303665979116
F315
tRp206
sg20
F0
sa(dp207
g8
F992.33333333333337
sg9
F1
sg10
(lp208
g12
(F-49
F-24
tRp209
ag12
(F49
F-24
tRp210
ag12
(F49
F24
tRp211
ag12
(F-49
F24
tRp212
asg17
F1
sg18
g12
(F452.88963650092683
F390
tRp213
sg20
F0
sasg77
(dp214
g79
g12
(F0
F0
tRp215
sg81
I10
ssa(dp216
g5
(lp217
(dp218
g8
Finf
sg9
Finf
sg10
(lp219
g12
(F-499
F-9
tRp220
ag12
(F499
F-9
tRp221
ag12
(F499
F9
tRp222
ag12
(F-499
F9
tRp223
asg17
F1
sg18
g12
(F500
F5
tRp224
sg20
F0
sa(dp225
g8
F992.33333333333337
sg9
F1
sg10
(lp226
g12
(F-49
F-24
tRp227
ag12
(F49
F-24
tRp228
ag12
(F49
F24
tRp229
ag12
(F-49
F24
tRp230
asg17
F1
sg18
g12
(F442.14663301659522
F40
tRp231
sg20
F0
sa(dp232
g8
F992.33333333333337
sg9
F1
sg10
(lp233
g12
(F-24
F-49
tRp234
ag12
(F24
F-49
tRp235
ag12
(F24
F49
tRp236
ag12
(F-24
F49
tRp237
asg17
F1
sg18
g12
(F592.12176310469385
F65
tRp238
sg20
F0
sa(dp239
g8
F992.33333333333337
sg9
F1
sg10
(lp240
g12
(F-24
F-49
tRp241
ag12
(F24
F-49
tRp242
ag12
(F24
F49
tRp243
ag12
(F-24
F49
tRp244
asg17
F1
sg18
g12
(F371.40674684482576
F115
tRp245
sg20
F0
sa(dp246
g8
F992.33333333333337
sg9
F1
sg10
(lp247
g12
(F-24
F-49
tRp248
ag12
(F24
F-49
tRp249
ag12
(F24
F49
tRp250
ag12
(F-24
F49
tRp251
asg17
F1
sg18
g12
(F495.37003900799237
F115
tRp252
sg20
F0
sa(dp253
g8
F992.33333333333337
sg9
F1
sg10
(lp254
g12
(F-49
F-24
tRp255
ag12
(F49
F-24
tRp256
ag12
(F49
F24
tRp257
ag12
(F-49
F24
tRp258
asg17
F1
sg18
g12
(F575.39968919004923
F140
tRp259
sg20
F0
sa(dp260
g8
F992.33333333333337
sg9
F1
sg10
(lp261
g12
(F-49
F-24
tRp262
ag12
(F49
F-24
tRp263
ag12
(F49
F24
tRp264
ag12
(F-49
F24
tRp265
asg17
F1
sg18
g12
(F454.53867732359623
F190
tRp266
sg20
F0
sa(dp267
g8
F992.33333333333337
sg9
F1
sg10
(lp268
g12
(F-24
F-49
tRp269
ag12
(F24
F-49
tRp270
ag12
(F24
F49
tRp271
ag12
(F-24
F49
tRp272
asg17
F1
sg18
g12
(F538.97988965476861
F215
tRp273
sg20
F0
sa(dp274
g8
F992.33333333333337
sg9
F1
sg10
(lp275
g12
(F-24
F-49
tRp276
ag12
(F24
F-49
tRp277
ag12
(F24
F49
tRp278
ag12
(F-24
F49
tRp279
asg17
F1
sg18
g12
(F473.52025325942151
F265
tRp280
sg20
F0
sa(dp281
g8
F992.33333333333337
sg9
F1
sg10
(lp282
g12
(F-24
F-49
tRp283
ag12
(F24
F-49
tRp284
ag12
(F24
F49
tRp285
ag12
(F-24
F49
tRp286
asg17
F1
sg18
g12
(F574.09996245053105
F315
tRp287
sg20
F0
sasg77
(dp288
g79
g12
(F0
F0
tRp289
sg81
I10
ssa(dp290
g5
(lp291
(dp292
g8
Finf
sg9
Finf
sg10
(lp293
g12
(F-499
F-9
tRp294
ag12
(F499
F-9
tRp295
ag12
(F499
F9
tRp296
ag12
(F-499
F9
tRp297
asg17
F1
sg18
g12
(F500
F5
tRp298
sg20
F0
sa(dp299
g8
F992.33333333333337
sg9
F1
sg10
(lp300
g12
(F-49
F-24
tRp301
ag12
(F49
F-24
tRp302
ag12
(F49
F24
tRp303
ag12
(F-49
F24
tRp304
asg17
F1
sg18
g12
(F567.24435950909697
F40
tRp305
sg20
F0
sa(dp306
g8
F992.33333333333337
sg9
F1
sg10
(lp307
g12
(F-49
F-24
tRp308
ag12
(F49
F-24
tRp309
ag12
(F49
F24
tRp310
ag12
(F-49
F24
tRp311
asg17
F1
sg18
g12
(F609.40510761731446
F90
tRp312
sg20
F0
sa(dp313
g8
F992.33333333333337
sg9
F1
sg10
(lp314
g12
(F-24
F-49
tRp315
ag12
(F24
F-49
tRp316
ag12
(F24
F49
tRp317
ag12
(F-24
F49
tRp318
asg17
F1
sg18
g12
(F522.28886613014754
F115
tRp319
sg20
F0
sa(dp320
g8
F992.33333333333337
sg9
F1
sg10
(lp321
g12
(F-49
F-24
tRp322
ag12
(F49
F-24
tRp323
ag12
(F49
F24
tRp324
ag12
(F-49
F24
tRp325
asg17
F1
sg18
g12
(F563.91088557049022
F190
tRp326
sg20
F0
sa(dp327
g8
F992.33333333333337
sg9
F1
sg10
(lp328
g12
(F-49
F-24
tRp329
ag12
(F49
F-24
tRp330
ag12
(F49
F24
tRp331
ag12
(F-49
F24
tRp332
asg17
F1
sg18
g12
(F541.79982191245074
F240
tRp333
sg20
F0
sa(dp334
g8
F992.33333333333337
sg9
F1
sg10
(lp335
g12
(F-24
F-49
tRp336
ag12
(F24
F-49
tRp337
ag12
(F24
F49
tRp338
ag12
(F-24
F49
tRp339
asg17
F1
sg18
g12
(F473.67990333907898
F315
tRp340
sg20
F0
sa(dp341
g8
F992.33333333333337
sg9
F1
sg10
(lp342
g12
(F-24
F-49
tRp343
ag12
(F24
F-49
tRp344
ag12
(F24
F49
tRp345
ag12
(F-24
F49
tRp346
asg17
F1
sg18
g12
(F478.63274128278425
F415
tRp347
sg20
F0
sasg77
(dp348
g79
g12
(F0
F0
tRp349
sg81
I10
ssasS'label'
p350
(lp351
ccollections
OrderedDict
p352
((lp353
(lp354
(cnumpy.core.multiarray
scalar
p355
(cnumpy
dtype
p356
(S'i8'
I0
I1
tRp357
(I3
S'<'
NNNI-1
I-1
I0
tbS'\x95\x01\x00\x00\x00\x00\x00\x00'
tRp358
g355
(g357
S'A\x00\x00\x00\x00\x00\x00\x00'
tRp359
tp360
ag355
(g356
(S'f8'
I0
I1
tRp361
(I3
S'<'
NNNI-1
I-1
I0
tbS'\x00\x00\x00\x00\x00\x00\xf0?'
tRp362
aa(lp363
(g355
(g357
S'\xe4\x01\x00\x00\x00\x00\x00\x00'
tRp364
g355
(g357
S'A\x00\x00\x00\x00\x00\x00\x00'
tRp365
tp366
ag355
(g361
S'\x00\x00\x00\x00\x00\x00\xf0?'
tRp367
aa(lp368
(g355
(g357
S'\xb3\x01\x00\x00\x00\x00\x00\x00'
tRp369
g355
(g357
S'\xa5\x00\x00\x00\x00\x00\x00\x00'
tRp370
tp371
ag355
(g361
S'\x00\x00\x00\x00\x00\x00\xf0?'
tRp372
aa(lp373
(g355
(g357
S'\xee\x01\x00\x00\x00\x00\x00\x00'
tRp374
g355
(g357
S'\xa5\x00\x00\x00\x00\x00\x00\x00'
tRp375
tp376
ag355
(g361
S'\x00\x00\x00\x00\x00\x00\xf0?'
tRp377
aa(lp378
(g355
(g357
S'\x1d\x02\x00\x00\x00\x00\x00\x00'
tRp379
g355
(g357
S'\xf0\x00\x00\x00\x00\x00\x00\x00'
tRp380
tp381
ag355
(g361
S'\x00\x00\x00\x00\x00\x00\xf0?'
tRp382
aa(lp383
(g355
(g357
S'\xa9\x01\x00\x00\x00\x00\x00\x00'
tRp384
g355
(g357
S'\t\x01\x00\x00\x00\x00\x00\x00'
tRp385
tp386
ag355
(g361
S'\x00\x00\x00\x00\x00\x00\xf0?'
tRp387
aa(lp388
(g355
(g357
S'\xf6\x01\x00\x00\x00\x00\x00\x00'
tRp389
g355
(g357
S'"\x01\x00\x00\x00\x00\x00\x00'
tRp390
tp391
ag355
(g361
S'\x00\x00\x00\x00\x00\x00\xf0?'
tRp392
aa(lp393
(g355
(g357
S'\xbb\x01\x00\x00\x00\x00\x00\x00'
tRp394
g355
(g357
S'm\x01\x00\x00\x00\x00\x00\x00'
tRp395
tp396
ag355
(g361
S'\x00\x00\x00\x00\x00\x00\xf0?'
tRp397
aatRp398
ag352
((lp399
(lp400
(g355
(g357
S'\x8f\x01\x00\x00\x00\x00\x00\x00'
tRp401
g355
(g357
S'A\x00\x00\x00\x00\x00\x00\x00'
tRp402
tp403
ag355
(g361
S'\x00\x00\x00\x00\x00\x00\xf0?'
tRp404
aa(lp405
(g355
(g357
S';\x02\x00\x00\x00\x00\x00\x00'
tRp406
g355
(g357
S'A\x00\x00\x00\x00\x00\x00\x00'
tRp407
tp408
ag355
(g361
S'\x00\x00\x00\x00\x00\x00\xf0?'
tRp409
aa(lp410
(g355
(g357
S'\xd9\x01\x00\x00\x00\x00\x00\x00'
tRp411
g355
(g357
S'\x8c\x00\x00\x00\x00\x00\x00\x00'
tRp412
tp413
ag355
(g361
S'\x00\x00\x00\x00\x00\x00\x00\x00'
tRp414
aa(lp415
(g355
(g357
S'B\x02\x00\x00\x00\x00\x00\x00'
tRp416
g355
(g357
S'\x8c\x00\x00\x00\x00\x00\x00\x00'
tRp417
tp418
ag355
(g361
S'\x00\x00\x00\x00\x00\x00\xf0?'
tRp419
aa(lp420
(g355
(g357
S'\x8c\x01\x00\x00\x00\x00\x00\x00'
tRp421
g355
(g357
S'\xa5\x00\x00\x00\x00\x00\x00\x00'
tRp422
tp423
ag355
(g361
S'\x00\x00\x00\x00\x00\x00\xf0?'
tRp424
aa(lp425
(g355
(g357
S'\xe0\x01\x00\x00\x00\x00\x00\x00'
tRp426
g355
(g357
S'\xd7\x00\x00\x00\x00\x00\x00\x00'
tRp427
tp428
ag355
(g361
S'\x00\x00\x00\x00\x00\x00\x00\x00'
tRp429
aa(lp430
(g355
(g357
S'Y\x02\x00\x00\x00\x00\x00\x00'
tRp431
g355
(g357
S'\xd7\x00\x00\x00\x00\x00\x00\x00'
tRp432
tp433
ag355
(g361
S'\x00\x00\x00\x00\x00\x00\xf0?'
tRp434
aa(lp435
(g355
(g357
S'\xdb\x01\x00\x00\x00\x00\x00\x00'
tRp436
g355
(g357
S'"\x01\x00\x00\x00\x00\x00\x00'
tRp437
tp438
ag355
(g361
S'\x00\x00\x00\x00\x00\x00\x00\x00'
tRp439
aa(lp440
(g355
(g357
S'E\x02\x00\x00\x00\x00\x00\x00'
tRp441
g355
(g357
S';\x01\x00\x00\x00\x00\x00\x00'
tRp442
tp443
ag355
(g361
S'\x00\x00\x00\x00\x00\x00\xf0?'
tRp444
aatRp445
ag352
((lp446
(lp447
(g355
(g357
S'\xb6\x01\x00\x00\x00\x00\x00\x00'
tRp448
g355
(g357
S'A\x00\x00\x00\x00\x00\x00\x00'
tRp449
tp450
ag355
(g361
S'\x00\x00\x00\x00\x00\x00\xf0?'
tRp451
aa(lp452
(g355
(g357
S'\x03\x02\x00\x00\x00\x00\x00\x00'
tRp453
g355
(g357
S'A\x00\x00\x00\x00\x00\x00\x00'
tRp454
tp455
ag355
(g361
S'\x00\x00\x00\x00\x00\x00\xf0?'
tRp456
aa(lp457
(g355
(g357
S'\xfc\x01\x00\x00\x00\x00\x00\x00'
tRp458
g355
(g357
S'\x8c\x00\x00\x00\x00\x00\x00\x00'
tRp459
tp460
ag355
(g361
S'\x00\x00\x00\x00\x00\x00\xf0?'
tRp461
aa(lp462
(g355
(g357
S'/\x02\x00\x00\x00\x00\x00\x00'
tRp463
g355
(g357
S'\xbe\x00\x00\x00\x00\x00\x00\x00'
tRp464
tp465
ag355
(g361
S'\x00\x00\x00\x00\x00\x00\x00\x00'
tRp466
aa(lp467
(g355
(g357
S'\xe3\x01\x00\x00\x00\x00\x00\x00'
tRp468
g355
(g357
S'\xd7\x00\x00\x00\x00\x00\x00\x00'
tRp469
tp470
ag355
(g361
S'\x00\x00\x00\x00\x00\x00\xf0?'
tRp471
aa(lp472
(g355
(g357
S'\xdd\x01\x00\x00\x00\x00\x00\x00'
tRp473
g355
(g357
S';\x01\x00\x00\x00\x00\x00\x00'
tRp474
tp475
ag355
(g361
S'\x00\x00\x00\x00\x00\x00\xf0?'
tRp476
aa(lp477
(g355
(g357
S'\xc4\x01\x00\x00\x00\x00\x00\x00'
tRp478
g355
(g357
S'\x86\x01\x00\x00\x00\x00\x00\x00'
tRp479
tp480
ag355
(g361
S'\x00\x00\x00\x00\x00\x00\xf0?'
tRp481
aatRp482
ag352
((lp483
(lp484
(g355
(g357
S'\xba\x01\x00\x00\x00\x00\x00\x00'
tRp485
g355
(g357
S'(\x00\x00\x00\x00\x00\x00\x00'
tRp486
tp487
ag355
(g361
S'\x00\x00\x00\x00\x00\x00\xf0?'
tRp488
aa(lp489
(g355
(g357
S'P\x02\x00\x00\x00\x00\x00\x00'
tRp490
g355
(g357
S'A\x00\x00\x00\x00\x00\x00\x00'
tRp491
tp492
ag355
(g361
S'\x00\x00\x00\x00\x00\x00\xf0?'
tRp493
aa(lp494
(g355
(g357
S's\x01\x00\x00\x00\x00\x00\x00'
tRp495
g355
(g357
S's\x00\x00\x00\x00\x00\x00\x00'
tRp496
tp497
ag355
(g361
S'\x00\x00\x00\x00\x00\x00\x00\x00'
tRp498
aa(lp499
(g355
(g357
S'\xef\x01\x00\x00\x00\x00\x00\x00'
tRp500
g355
(g357
S's\x00\x00\x00\x00\x00\x00\x00'
tRp501
tp502
ag355
(g361
S'\x00\x00\x00\x00\x00\x00\xf0?'
tRp503
aa(lp504
(g355
(g357
S'?\x02\x00\x00\x00\x00\x00\x00'
tRp505
g355
(g357
S'\x8c\x00\x00\x00\x00\x00\x00\x00'
tRp506
tp507
ag355
(g361
S'\x00\x00\x00\x00\x00\x00\xf0?'
tRp508
aa(lp509
(g355
(g357
S'\xc6\x01\x00\x00\x00\x00\x00\x00'
tRp510
g355
(g357
S'\xbe\x00\x00\x00\x00\x00\x00\x00'
tRp511
tp512
ag355
(g361
S'\x00\x00\x00\x00\x00\x00\x00\x00'
tRp513
aa(lp514
(g355
(g357
S'\x1a\x02\x00\x00\x00\x00\x00\x00'
tRp515
g355
(g357
S'\xd7\x00\x00\x00\x00\x00\x00\x00'
tRp516
tp517
ag355
(g361
S'\x00\x00\x00\x00\x00\x00\xf0?'
tRp518
aa(lp519
(g355
(g357
S'\xd9\x01\x00\x00\x00\x00\x00\x00'
tRp520
g355
(g357
S'\t\x01\x00\x00\x00\x00\x00\x00'
tRp521
tp522
ag355
(g361
S'\x00\x00\x00\x00\x00\x00\x00\x00'
tRp523
aa(lp524
(g355
(g357
S'>\x02\x00\x00\x00\x00\x00\x00'
tRp525
g355
(g357
S';\x01\x00\x00\x00\x00\x00\x00'
tRp526
tp527
ag355
(g361
S'\x00\x00\x00\x00\x00\x00\x00\x00'
tRp528
aatRp529
ag352
((lp530
(lp531
(g355
(g357
S'7\x02\x00\x00\x00\x00\x00\x00'
tRp532
g355
(g357
S'(\x00\x00\x00\x00\x00\x00\x00'
tRp533
tp534
ag355
(g361
S'\x00\x00\x00\x00\x00\x00\xf0?'
tRp535
aa(lp536
(g355
(g357
S'a\x02\x00\x00\x00\x00\x00\x00'
tRp537
g355
(g357
S'Z\x00\x00\x00\x00\x00\x00\x00'
tRp538
tp539
ag355
(g361
S'\x00\x00\x00\x00\x00\x00\xf0?'
tRp540
aa(lp541
(g355
(g357
S'\n\x02\x00\x00\x00\x00\x00\x00'
tRp542
g355
(g357
S's\x00\x00\x00\x00\x00\x00\x00'
tRp543
tp544
ag355
(g361
S'\x00\x00\x00\x00\x00\x00\xf0?'
tRp545
aa(lp546
(g355
(g357
S'3\x02\x00\x00\x00\x00\x00\x00'
tRp547
g355
(g357
S'\xbe\x00\x00\x00\x00\x00\x00\x00'
tRp548
tp549
ag355
(g361
S'\x00\x00\x00\x00\x00\x00\xf0?'
tRp550
aa(lp551
(g355
(g357
S'\x1d\x02\x00\x00\x00\x00\x00\x00'
tRp552
g355
(g357
S'\xf0\x00\x00\x00\x00\x00\x00\x00'
tRp553
tp554
ag355
(g361
S'\x00\x00\x00\x00\x00\x00\xf0?'
tRp555
aa(lp556
(g355
(g357
S'\xd9\x01\x00\x00\x00\x00\x00\x00'
tRp557
g355
(g357
S';\x01\x00\x00\x00\x00\x00\x00'
tRp558
tp559
ag355
(g361
S'\x00\x00\x00\x00\x00\x00\x00\x00'
tRp560
aa(lp561
(g355
(g357
S'\xde\x01\x00\x00\x00\x00\x00\x00'
tRp562
g355
(g357
S'\x9f\x01\x00\x00\x00\x00\x00\x00'
tRp563
tp564
ag355
(g361
S'\x00\x00\x00\x00\x00\x00\x00\x00'
tRp565
aatRp566
as.