(dp1
S'data'
p2
(lp3
(dp4
S'blocks'
p5
(lp6
(dp7
S'moment'
p8
Finf
sS'mass'
p9
Finf
sS'vert'
p10
(lp11
cpymunk.vec2d
Vec2d
p12
(F-499
F-9
tRp13
ag12
(F499
F-9
tRp14
ag12
(F499
F9
tRp15
ag12
(F-499
F9
tRp16
asS'fric'
p17
F1000
sS'pos'
p18
g12
(F500
F5
tRp19
sS'elas'
p20
F0
sa(dp21
g8
F1440.6666666666667
sg9
F1
sg10
(lp22
g12
(F-59
F-29
tRp23
ag12
(F59
F-29
tRp24
ag12
(F59
F29
tRp25
ag12
(F-59
F29
tRp26
asg17
F1000
sg18
g12
(F500
F45
tRp27
sg20
F0
sa(dp28
g8
F1440.6666666666667
sg9
F1
sg10
(lp29
g12
(F-59
F-29
tRp30
ag12
(F59
F-29
tRp31
ag12
(F59
F29
tRp32
ag12
(F-59
F29
tRp33
asg17
F1000
sg18
g12
(F525.42398214532102
F105
tRp34
sg20
F0
sa(dp35
g8
F1440.6666666666667
sg9
F1
sg10
(lp36
g12
(F-59
F-29
tRp37
ag12
(F59
F-29
tRp38
ag12
(F59
F29
tRp39
ag12
(F-59
F29
tRp40
asg17
F1000
sg18
g12
(F478.35500371889077
F165
tRp41
sg20
F0
sa(dp42
g8
F1440.6666666666667
sg9
F1
sg10
(lp43
g12
(F-29
F-59
tRp44
ag12
(F29
F-59
tRp45
ag12
(F29
F59
tRp46
ag12
(F-29
F59
tRp47
asg17
F1000
sg18
g12
(F507.35935628614249
F255
tRp48
sg20
F0
sasS'props'
p49
(dp50
S'gravity'
p51
g12
(F0
F0
tRp52
sS'iterations'
p53
I10
ssa(dp54
g5
(lp55
(dp56
g8
Finf
sg9
Finf
sg10
(lp57
g12
(F-499
F-9
tRp58
ag12
(F499
F-9
tRp59
ag12
(F499
F9
tRp60
ag12
(F-499
F9
tRp61
asg17
F1000
sg18
g12
(F500
F5
tRp62
sg20
F0
sa(dp63
g8
F1440.6666666666667
sg9
F1
sg10
(lp64
g12
(F-59
F-29
tRp65
ag12
(F59
F-29
tRp66
ag12
(F59
F29
tRp67
ag12
(F-59
F29
tRp68
asg17
F1000
sg18
g12
(F500
F45
tRp69
sg20
F0
sa(dp70
g8
F1440.6666666666667
sg9
F1
sg10
(lp71
g12
(F-59
F-29
tRp72
ag12
(F59
F-29
tRp73
ag12
(F59
F29
tRp74
ag12
(F-59
F29
tRp75
asg17
F1000
sg18
g12
(F445.79550573928032
F105
tRp76
sg20
F0
sa(dp77
g8
F1440.6666666666667
sg9
F1
sg10
(lp78
g12
(F-59
F-29
tRp79
ag12
(F59
F-29
tRp80
ag12
(F59
F29
tRp81
ag12
(F-59
F29
tRp82
asg17
F1000
sg18
g12
(F465.63953220158248
F165
tRp83
sg20
F0
sa(dp84
g8
F1440.6666666666667
sg9
F1
sg10
(lp85
g12
(F-29
F-59
tRp86
ag12
(F29
F-59
tRp87
ag12
(F29
F59
tRp88
ag12
(F-29
F59
tRp89
asg17
F1000
sg18
g12
(F476.69478242029186
F255
tRp90
sg20
F0
sasg49
(dp91
g51
g12
(F0
F0
tRp92
sg53
I10
ssa(dp93
g5
(lp94
(dp95
g8
Finf
sg9
Finf
sg10
(lp96
g12
(F-499
F-9
tRp97
ag12
(F499
F-9
tRp98
ag12
(F499
F9
tRp99
ag12
(F-499
F9
tRp100
asg17
F1000
sg18
g12
(F500
F5
tRp101
sg20
F0
sa(dp102
g8
F1440.6666666666667
sg9
F1
sg10
(lp103
g12
(F-59
F-29
tRp104
ag12
(F59
F-29
tRp105
ag12
(F59
F29
tRp106
ag12
(F-59
F29
tRp107
asg17
F1000
sg18
g12
(F500
F45
tRp108
sg20
F0
sa(dp109
g8
F1440.6666666666667
sg9
F1
sg10
(lp110
g12
(F-59
F-29
tRp111
ag12
(F59
F-29
tRp112
ag12
(F59
F29
tRp113
ag12
(F-59
F29
tRp114
asg17
F1000
sg18
g12
(F447.85116453501143
F105
tRp115
sg20
F0
sa(dp116
g8
F1440.6666666666667
sg9
F1
sg10
(lp117
g12
(F-59
F-29
tRp118
ag12
(F59
F-29
tRp119
ag12
(F59
F29
tRp120
ag12
(F-59
F29
tRp121
asg17
F1000
sg18
g12
(F390.37670046244625
F165
tRp122
sg20
F0
sa(dp123
g8
F1440.6666666666667
sg9
F1
sg10
(lp124
g12
(F-59
F-29
tRp125
ag12
(F59
F-29
tRp126
ag12
(F59
F29
tRp127
ag12
(F-59
F29
tRp128
asg17
F1000
sg18
g12
(F417.15475096300992
F225
tRp129
sg20
F0
sasg49
(dp130
g51
g12
(F0
F0
tRp131
sg53
I10
ssa(dp132
g5
(lp133
(dp134
g8
Finf
sg9
Finf
sg10
(lp135
g12
(F-499
F-9
tRp136
ag12
(F499
F-9
tRp137
ag12
(F499
F9
tRp138
ag12
(F-499
F9
tRp139
asg17
F1000
sg18
g12
(F500
F5
tRp140
sg20
F0
sa(dp141
g8
F1440.6666666666667
sg9
F1
sg10
(lp142
g12
(F-59
F-29
tRp143
ag12
(F59
F-29
tRp144
ag12
(F59
F29
tRp145
ag12
(F-59
F29
tRp146
asg17
F1000
sg18
g12
(F500
F45
tRp147
sg20
F0
sa(dp148
g8
F1440.6666666666667
sg9
F1
sg10
(lp149
g12
(F-59
F-29
tRp150
ag12
(F59
F-29
tRp151
ag12
(F59
F29
tRp152
ag12
(F-59
F29
tRp153
asg17
F1000
sg18
g12
(F531.25961495149602
F105
tRp154
sg20
F0
sa(dp155
g8
F1440.6666666666667
sg9
F1
sg10
(lp156
g12
(F-59
F-29
tRp157
ag12
(F59
F-29
tRp158
ag12
(F59
F29
tRp159
ag12
(F-59
F29
tRp160
asg17
F1000
sg18
g12
(F532.01194611484698
F165
tRp161
sg20
F0
sa(dp162
g8
F1440.6666666666667
sg9
F1
sg10
(lp163
g12
(F-29
F-59
tRp164
ag12
(F29
F-59
tRp165
ag12
(F29
F59
tRp166
ag12
(F-29
F59
tRp167
asg17
F1000
sg18
g12
(F560.19757963516361
F255
tRp168
sg20
F0
sasg49
(dp169
g51
g12
(F0
F0
tRp170
sg53
I10
ssa(dp171
g5
(lp172
(dp173
g8
Finf
sg9
Finf
sg10
(lp174
g12
(F-499
F-9
tRp175
ag12
(F499
F-9
tRp176
ag12
(F499
F9
tRp177
ag12
(F-499
F9
tRp178
asg17
F1000
sg18
g12
(F500
F5
tRp179
sg20
F0
sa(dp180
g8
F1440.6666666666667
sg9
F1
sg10
(lp181
g12
(F-59
F-29
tRp182
ag12
(F59
F-29
tRp183
ag12
(F59
F29
tRp184
ag12
(F-59
F29
tRp185
asg17
F1000
sg18
g12
(F500
F45
tRp186
sg20
F0
sa(dp187
g8
F1440.6666666666667
sg9
F1
sg10
(lp188
g12
(F-29
F-59
tRp189
ag12
(F29
F-59
tRp190
ag12
(F29
F59
tRp191
ag12
(F-29
F59
tRp192
asg17
F1000
sg18
g12
(F462.43881876141404
F135
tRp193
sg20
F0
sa(dp194
g8
F1440.6666666666667
sg9
F1
sg10
(lp195
g12
(F-29
F-59
tRp196
ag12
(F29
F-59
tRp197
ag12
(F29
F59
tRp198
ag12
(F-29
F59
tRp199
asg17
F1000
sg18
g12
(F453.41281334634147
F255
tRp200
sg20
F0
sa(dp201
g8
F1440.6666666666667
sg9
F1
sg10
(lp202
g12
(F-29
F-59
tRp203
ag12
(F29
F-59
tRp204
ag12
(F29
F59
tRp205
ag12
(F-29
F59
tRp206
asg17
F1000
sg18
g12
(F501.24866047963974
F375
tRp207
sg20
F0
sasg49
(dp208
g51
g12
(F0
F0
tRp209
sg53
I10
ssa(dp210
g5
(lp211
(dp212
g8
Finf
sg9
Finf
sg10
(lp213
g12
(F-499
F-9
tRp214
ag12
(F499
F-9
tRp215
ag12
(F499
F9
tRp216
ag12
(F-499
F9
tRp217
asg17
F1000
sg18
g12
(F500
F5
tRp218
sg20
F0
sa(dp219
g8
F1440.6666666666667
sg9
F1
sg10
(lp220
g12
(F-59
F-29
tRp221
ag12
(F59
F-29
tRp222
ag12
(F59
F29
tRp223
ag12
(F-59
F29
tRp224
asg17
F1000
sg18
g12
(F500
F45
tRp225
sg20
F0
sa(dp226
g8
F1440.6666666666667
sg9
F1
sg10
(lp227
g12
(F-29
F-59
tRp228
ag12
(F29
F-59
tRp229
ag12
(F29
F59
tRp230
ag12
(F-29
F59
tRp231
asg17
F1000
sg18
g12
(F475.1447065078741
F135
tRp232
sg20
F0
sa(dp233
g8
F1440.6666666666667
sg9
F1
sg10
(lp234
g12
(F-59
F-29
tRp235
ag12
(F59
F-29
tRp236
ag12
(F59
F29
tRp237
ag12
(F-59
F29
tRp238
asg17
F1000
sg18
g12
(F487.56671744267584
F225
tRp239
sg20
F0
sa(dp240
g8
F1440.6666666666667
sg9
F1
sg10
(lp241
g12
(F-59
F-29
tRp242
ag12
(F59
F-29
tRp243
ag12
(F59
F29
tRp244
ag12
(F-59
F29
tRp245
asg17
F1000
sg18
g12
(F461.03800991259936
F285
tRp246
sg20
F0
sasg49
(dp247
g51
g12
(F0
F0
tRp248
sg53
I10
ssa(dp249
g5
(lp250
(dp251
g8
Finf
sg9
Finf
sg10
(lp252
g12
(F-499
F-9
tRp253
ag12
(F499
F-9
tRp254
ag12
(F499
F9
tRp255
ag12
(F-499
F9
tRp256
asg17
F1000
sg18
g12
(F500
F5
tRp257
sg20
F0
sa(dp258
g8
F1440.6666666666667
sg9
F1
sg10
(lp259
g12
(F-59
F-29
tRp260
ag12
(F59
F-29
tRp261
ag12
(F59
F29
tRp262
ag12
(F-59
F29
tRp263
asg17
F1000
sg18
g12
(F500
F45
tRp264
sg20
F0
sa(dp265
g8
F1440.6666666666667
sg9
F1
sg10
(lp266
g12
(F-59
F-29
tRp267
ag12
(F59
F-29
tRp268
ag12
(F59
F29
tRp269
ag12
(F-59
F29
tRp270
asg17
F1000
sg18
g12
(F533.10182941253731
F105
tRp271
sg20
F0
sa(dp272
g8
F1440.6666666666667
sg9
F1
sg10
(lp273
g12
(F-29
F-59
tRp274
ag12
(F29
F-59
tRp275
ag12
(F29
F59
tRp276
ag12
(F-29
F59
tRp277
asg17
F1000
sg18
g12
(F457.58400504672073
F195
tRp278
sg20
F0
sa(dp279
g8
F1440.6666666666667
sg9
F1
sg10
(lp280
g12
(F-59
F-29
tRp281
ag12
(F59
F-29
tRp282
ag12
(F59
F29
tRp283
ag12
(F-59
F29
tRp284
asg17
F1000
sg18
g12
(F399.38001075169842
F285
tRp285
sg20
F0
sasg49
(dp286
g51
g12
(F0
F0
tRp287
sg53
I10
ssa(dp288
g5
(lp289
(dp290
g8
Finf
sg9
Finf
sg10
(lp291
g12
(F-499
F-9
tRp292
ag12
(F499
F-9
tRp293
ag12
(F499
F9
tRp294
ag12
(F-499
F9
tRp295
asg17
F1000
sg18
g12
(F500
F5
tRp296
sg20
F0
sa(dp297
g8
F1440.6666666666667
sg9
F1
sg10
(lp298
g12
(F-59
F-29
tRp299
ag12
(F59
F-29
tRp300
ag12
(F59
F29
tRp301
ag12
(F-59
F29
tRp302
asg17
F1000
sg18
g12
(F500
F45
tRp303
sg20
F0
sa(dp304
g8
F1440.6666666666667
sg9
F1
sg10
(lp305
g12
(F-29
F-59
tRp306
ag12
(F29
F-59
tRp307
ag12
(F29
F59
tRp308
ag12
(F-29
F59
tRp309
asg17
F1000
sg18
g12
(F513.83143576006898
F135
tRp310
sg20
F0
sa(dp311
g8
F1440.6666666666667
sg9
F1
sg10
(lp312
g12
(F-59
F-29
tRp313
ag12
(F59
F-29
tRp314
ag12
(F59
F29
tRp315
ag12
(F-59
F29
tRp316
asg17
F1000
sg18
g12
(F516.78351765114826
F225
tRp317
sg20
F0
sa(dp318
g8
F1440.6666666666667
sg9
F1
sg10
(lp319
g12
(F-29
F-59
tRp320
ag12
(F29
F-59
tRp321
ag12
(F29
F59
tRp322
ag12
(F-29
F59
tRp323
asg17
F1000
sg18
g12
(F545.60684148007545
F315
tRp324
sg20
F0
sasg49
(dp325
g51
g12
(F0
F0
tRp326
sg53
I10
ssa(dp327
g5
(lp328
(dp329
g8
Finf
sg9
Finf
sg10
(lp330
g12
(F-499
F-9
tRp331
ag12
(F499
F-9
tRp332
ag12
(F499
F9
tRp333
ag12
(F-499
F9
tRp334
asg17
F1000
sg18
g12
(F500
F5
tRp335
sg20
F0
sa(dp336
g8
F1440.6666666666667
sg9
F1
sg10
(lp337
g12
(F-59
F-29
tRp338
ag12
(F59
F-29
tRp339
ag12
(F59
F29
tRp340
ag12
(F-59
F29
tRp341
asg17
F1000
sg18
g12
(F500
F45
tRp342
sg20
F0
sa(dp343
g8
F1440.6666666666667
sg9
F1
sg10
(lp344
g12
(F-59
F-29
tRp345
ag12
(F59
F-29
tRp346
ag12
(F59
F29
tRp347
ag12
(F-59
F29
tRp348
asg17
F1000
sg18
g12
(F477.00464323928253
F105
tRp349
sg20
F0
sa(dp350
g8
F1440.6666666666667
sg9
F1
sg10
(lp351
g12
(F-29
F-59
tRp352
ag12
(F29
F-59
tRp353
ag12
(F29
F59
tRp354
ag12
(F-29
F59
tRp355
asg17
F1000
sg18
g12
(F477.12727546316165
F195
tRp356
sg20
F0
sa(dp357
g8
F1440.6666666666667
sg9
F1
sg10
(lp358
g12
(F-59
F-29
tRp359
ag12
(F59
F-29
tRp360
ag12
(F59
F29
tRp361
ag12
(F-59
F29
tRp362
asg17
F1000
sg18
g12
(F498.70124482436074
F285
tRp363
sg20
F0
sasg49
(dp364
g51
g12
(F0
F0
tRp365
sg53
I10
ssa(dp366
g5
(lp367
(dp368
g8
Finf
sg9
Finf
sg10
(lp369
g12
(F-499
F-9
tRp370
ag12
(F499
F-9
tRp371
ag12
(F499
F9
tRp372
ag12
(F-499
F9
tRp373
asg17
F1000
sg18
g12
(F500
F5
tRp374
sg20
F0
sa(dp375
g8
F1440.6666666666667
sg9
F1
sg10
(lp376
g12
(F-59
F-29
tRp377
ag12
(F59
F-29
tRp378
ag12
(F59
F29
tRp379
ag12
(F-59
F29
tRp380
asg17
F1000
sg18
g12
(F500
F45
tRp381
sg20
F0
sa(dp382
g8
F1440.6666666666667
sg9
F1
sg10
(lp383
g12
(F-29
F-59
tRp384
ag12
(F29
F-59
tRp385
ag12
(F29
F59
tRp386
ag12
(F-29
F59
tRp387
asg17
F1000
sg18
g12
(F474.56728320609494
F135
tRp388
sg20
F0
sa(dp389
g8
F1440.6666666666667
sg9
F1
sg10
(lp390
g12
(F-59
F-29
tRp391
ag12
(F59
F-29
tRp392
ag12
(F59
F29
tRp393
ag12
(F-59
F29
tRp394
asg17
F1000
sg18
g12
(F434.41795091229227
F225
tRp395
sg20
F0
sa(dp396
g8
F1440.6666666666667
sg9
F1
sg10
(lp397
g12
(F-29
F-59
tRp398
ag12
(F29
F-59
tRp399
ag12
(F29
F59
tRp400
ag12
(F-29
F59
tRp401
asg17
F1000
sg18
g12
(F356.57209327609797
F315
tRp402
sg20
F0
sasg49
(dp403
g51
g12
(F0
F0
tRp404
sg53
I10
ssasS'label'
p405
(lp406
ccollections
OrderedDict
p407
((lp408
(lp409
(I500
I45
tp410
aI01
aa(lp411
(I525
I105
tp412
aI01
aa(lp413
(I478
I165
tp414
aI01
aa(lp415
(I507
I255
tp416
aI01
aatRp417
ag407
((lp418
(lp419
(I500
I45
tp420
aI01
aa(lp421
(I445
I105
tp422
aI01
aa(lp423
(I465
I165
tp424
aI01
aa(lp425
(I476
I255
tp426
aI01
aatRp427
ag407
((lp428
(lp429
(I500
I45
tp430
aI00
aa(lp431
(I447
I105
tp432
aI00
aa(lp433
(I390
I165
tp434
aI00
aa(lp435
(I417
I225
tp436
aI00
aatRp437
ag407
((lp438
(lp439
(I500
I45
tp440
aI01
aa(lp441
(I531
I105
tp442
aI01
aa(lp443
(I532
I165
tp444
aI01
aa(lp445
(I560
I255
tp446
aI01
aatRp447
ag407
((lp448
(lp449
(I500
I45
tp450
aI01
aa(lp451
(I462
I135
tp452
aI01
aa(lp453
(I453
I255
tp454
aI01
aa(lp455
(I501
I375
tp456
aI00
aatRp457
ag407
((lp458
(lp459
(I500
I45
tp460
aI01
aa(lp461
(I475
I135
tp462
aI01
aa(lp463
(I487
I225
tp464
aI01
aa(lp465
(I461
I285
tp466
aI01
aatRp467
ag407
((lp468
(lp469
(I500
I45
tp470
aI01
aa(lp471
(I533
I105
tp472
aI00
aa(lp473
(I457
I195
tp474
aI00
aa(lp475
(I399
I285
tp476
aI00
aatRp477
ag407
((lp478
(lp479
(I500
I45
tp480
aI01
aa(lp481
(I513
I135
tp482
aI01
aa(lp483
(I516
I225
tp484
aI01
aa(lp485
(I545
I315
tp486
aI01
aatRp487
ag407
((lp488
(lp489
(I500
I45
tp490
aI01
aa(lp491
(I477
I105
tp492
aI01
aa(lp493
(I477
I195
tp494
aI01
aa(lp495
(I498
I285
tp496
aI01
aatRp497
ag407
((lp498
(lp499
(I500
I45
tp500
aI01
aa(lp501
(I474
I135
tp502
aI00
aa(lp503
(I434
I225
tp504
aI00
aa(lp505
(I356
I315
tp506
aI00
aatRp507
as.