(lp1
(dp2
S'blocks'
p3
(lp4
(dp5
S'moment'
p6
Finf
sS'mass'
p7
Finf
sS'vert'
p8
(lp9
cpymunk.vec2d
Vec2d
p10
(F-499
F-4
tRp11
ag10
(F499
F-4
tRp12
ag10
(F499
F4
tRp13
ag10
(F-499
F4
tRp14
asS'fric'
p15
F1000
sS'pos'
p16
g10
(F500
F5
tRp17
sS'elas'
p18
F0
sa(dp19
g6
F992.33333333333337
sg7
F1
sg8
(lp20
g10
(F-49
F-24
tRp21
ag10
(F49
F-24
tRp22
ag10
(F49
F24
tRp23
ag10
(F-49
F24
tRp24
asg15
F1000
sg16
g10
(F500
F35
tRp25
sg18
F0
sa(dp26
g6
F992.33333333333337
sg7
F1
sg8
(lp27
g10
(F-49
F-24
tRp28
ag10
(F49
F-24
tRp29
ag10
(F49
F24
tRp30
ag10
(F-49
F24
tRp31
asg15
F1000
sg16
g10
(F481.42999229146392
F85
tRp32
sg18
F0
sa(dp33
g6
F992.33333333333337
sg7
F1
sg8
(lp34
g10
(F-49
F-24
tRp35
ag10
(F49
F-24
tRp36
ag10
(F49
F24
tRp37
ag10
(F-49
F24
tRp38
asg15
F1000
sg16
g10
(F455.66082244691756
F135
tRp39
sg18
F0
sa(dp40
g6
F992.33333333333337
sg7
F1
sg8
(lp41
g10
(F-49
F-24
tRp42
ag10
(F49
F-24
tRp43
ag10
(F49
F24
tRp44
ag10
(F-49
F24
tRp45
asg15
F1000
sg16
g10
(F520.45076207413331
F185
tRp46
sg18
F0
sa(dp47
g6
F992.33333333333337
sg7
F1
sg8
(lp48
g10
(F-49
F-24
tRp49
ag10
(F49
F-24
tRp50
ag10
(F49
F24
tRp51
ag10
(F-49
F24
tRp52
asg15
F1000
sg16
g10
(F544.46132898809344
F235
tRp53
sg18
F0
sa(dp54
g6
F992.33333333333337
sg7
F1
sg8
(lp55
g10
(F-49
F-24
tRp56
ag10
(F49
F-24
tRp57
ag10
(F49
F24
tRp58
ag10
(F-49
F24
tRp59
asg15
F1000
sg16
g10
(F558.29695671789898
F285
tRp60
sg18
F0
sa(dp61
g6
F992.33333333333337
sg7
F1
sg8
(lp62
g10
(F-49
F-24
tRp63
ag10
(F49
F-24
tRp64
ag10
(F49
F24
tRp65
ag10
(F-49
F24
tRp66
asg15
F1000
sg16
g10
(F548.89840740203397
F335
tRp67
sg18
F0
sa(dp68
g6
F992.33333333333337
sg7
F1
sg8
(lp69
g10
(F-24
F-49
tRp70
ag10
(F24
F-49
tRp71
ag10
(F24
F49
tRp72
ag10
(F-24
F49
tRp73
asg15
F1000
sg16
g10
(F487.20116373700711
F410
tRp74
sg18
F0
sasS'props'
p75
(dp76
S'gravity'
p77
g10
(F0
F0
tRp78
sS'iterations'
p79
I10
ssa(dp80
g3
(lp81
(dp82
g6
Finf
sg7
Finf
sg8
(lp83
g10
(F-499
F-4
tRp84
ag10
(F499
F-4
tRp85
ag10
(F499
F4
tRp86
ag10
(F-499
F4
tRp87
asg15
F1000
sg16
g10
(F500
F5
tRp88
sg18
F0
sa(dp89
g6
F992.33333333333337
sg7
F1
sg8
(lp90
g10
(F-49
F-24
tRp91
ag10
(F49
F-24
tRp92
ag10
(F49
F24
tRp93
ag10
(F-49
F24
tRp94
asg15
F1000
sg16
g10
(F500
F35
tRp95
sg18
F0
sa(dp96
g6
F992.33333333333337
sg7
F1
sg8
(lp97
g10
(F-24
F-49
tRp98
ag10
(F24
F-49
tRp99
ag10
(F24
F49
tRp100
ag10
(F-24
F49
tRp101
asg15
F1000
sg16
g10
(F546.05579543483429
F110
tRp102
sg18
F0
sa(dp103
g6
F992.33333333333337
sg7
F1
sg8
(lp104
g10
(F-24
F-49
tRp105
ag10
(F24
F-49
tRp106
ag10
(F24
F49
tRp107
ag10
(F-24
F49
tRp108
asg15
F1000
sg16
g10
(F552.00800922704843
F210
tRp109
sg18
F0
sa(dp110
g6
F992.33333333333337
sg7
F1
sg8
(lp111
g10
(F-24
F-49
tRp112
ag10
(F24
F-49
tRp113
ag10
(F24
F49
tRp114
ag10
(F-24
F49
tRp115
asg15
F1000
sg16
g10
(F513.67392278616308
F310
tRp116
sg18
F0
sa(dp117
g6
F992.33333333333337
sg7
F1
sg8
(lp118
g10
(F-24
F-49
tRp119
ag10
(F24
F-49
tRp120
ag10
(F24
F49
tRp121
ag10
(F-24
F49
tRp122
asg15
F1000
sg16
g10
(F527.73340914922414
F410
tRp123
sg18
F0
sa(dp124
g6
F992.33333333333337
sg7
F1
sg8
(lp125
g10
(F-24
F-49
tRp126
ag10
(F24
F-49
tRp127
ag10
(F24
F49
tRp128
ag10
(F-24
F49
tRp129
asg15
F1000
sg16
g10
(F530.7180536229439
F510
tRp130
sg18
F0
sa(dp131
g6
F992.33333333333337
sg7
F1
sg8
(lp132
g10
(F-24
F-49
tRp133
ag10
(F24
F-49
tRp134
ag10
(F24
F49
tRp135
ag10
(F-24
F49
tRp136
asg15
F1000
sg16
g10
(F543.1690439251862
F610
tRp137
sg18
F0
sa(dp138
g6
F992.33333333333337
sg7
F1
sg8
(lp139
g10
(F-49
F-24
tRp140
ag10
(F49
F-24
tRp141
ag10
(F49
F24
tRp142
ag10
(F-49
F24
tRp143
asg15
F1000
sg16
g10
(F537.63514224511528
F685
tRp144
sg18
F0
sasg75
(dp145
g77
g10
(F0
F0
tRp146
sg79
I10
ssa(dp147
g3
(lp148
(dp149
g6
Finf
sg7
Finf
sg8
(lp150
g10
(F-499
F-4
tRp151
ag10
(F499
F-4
tRp152
ag10
(F499
F4
tRp153
ag10
(F-499
F4
tRp154
asg15
F1000
sg16
g10
(F500
F5
tRp155
sg18
F0
sa(dp156
g6
F992.33333333333337
sg7
F1
sg8
(lp157
g10
(F-49
F-24
tRp158
ag10
(F49
F-24
tRp159
ag10
(F49
F24
tRp160
ag10
(F-49
F24
tRp161
asg15
F1000
sg16
g10
(F500
F35
tRp162
sg18
F0
sa(dp163
g6
F992.33333333333337
sg7
F1
sg8
(lp164
g10
(F-49
F-24
tRp165
ag10
(F49
F-24
tRp166
ag10
(F49
F24
tRp167
ag10
(F-49
F24
tRp168
asg15
F1000
sg16
g10
(F442.38561392757111
F85
tRp169
sg18
F0
sa(dp170
g6
F992.33333333333337
sg7
F1
sg8
(lp171
g10
(F-49
F-24
tRp172
ag10
(F49
F-24
tRp173
ag10
(F49
F24
tRp174
ag10
(F-49
F24
tRp175
asg15
F1000
sg16
g10
(F495.83923793011309
F135
tRp176
sg18
F0
sa(dp177
g6
F992.33333333333337
sg7
F1
sg8
(lp178
g10
(F-24
F-49
tRp179
ag10
(F24
F-49
tRp180
ag10
(F24
F49
tRp181
ag10
(F-24
F49
tRp182
asg15
F1000
sg16
g10
(F516.83599611531133
F210
tRp183
sg18
F0
sa(dp184
g6
F992.33333333333337
sg7
F1
sg8
(lp185
g10
(F-49
F-24
tRp186
ag10
(F49
F-24
tRp187
ag10
(F49
F24
tRp188
ag10
(F-49
F24
tRp189
asg15
F1000
sg16
g10
(F444.02395505527284
F285
tRp190
sg18
F0
sa(dp191
g6
F992.33333333333337
sg7
F1
sg8
(lp192
g10
(F-24
F-49
tRp193
ag10
(F24
F-49
tRp194
ag10
(F24
F49
tRp195
ag10
(F-24
F49
tRp196
asg15
F1000
sg16
g10
(F442.1147729703934
F360
tRp197
sg18
F0
sa(dp198
g6
F992.33333333333337
sg7
F1
sg8
(lp199
g10
(F-24
F-49
tRp200
ag10
(F24
F-49
tRp201
ag10
(F24
F49
tRp202
ag10
(F-24
F49
tRp203
asg15
F1000
sg16
g10
(F470.8019026664337
F460
tRp204
sg18
F0
sa(dp205
g6
F992.33333333333337
sg7
F1
sg8
(lp206
g10
(F-24
F-49
tRp207
ag10
(F24
F-49
tRp208
ag10
(F24
F49
tRp209
ag10
(F-24
F49
tRp210
asg15
F1000
sg16
g10
(F471.98474013977653
F560
tRp211
sg18
F0
sasg75
(dp212
g77
g10
(F0
F0
tRp213
sg79
I10
ssa(dp214
g3
(lp215
(dp216
g6
Finf
sg7
Finf
sg8
(lp217
g10
(F-499
F-4
tRp218
ag10
(F499
F-4
tRp219
ag10
(F499
F4
tRp220
ag10
(F-499
F4
tRp221
asg15
F1000
sg16
g10
(F500
F5
tRp222
sg18
F0
sa(dp223
g6
F992.33333333333337
sg7
F1
sg8
(lp224
g10
(F-49
F-24
tRp225
ag10
(F49
F-24
tRp226
ag10
(F49
F24
tRp227
ag10
(F-49
F24
tRp228
asg15
F1000
sg16
g10
(F500
F35
tRp229
sg18
F0
sa(dp230
g6
F992.33333333333337
sg7
F1
sg8
(lp231
g10
(F-49
F-24
tRp232
ag10
(F49
F-24
tRp233
ag10
(F49
F24
tRp234
ag10
(F-49
F24
tRp235
asg15
F1000
sg16
g10
(F505.00696678464476
F85
tRp236
sg18
F0
sa(dp237
g6
F992.33333333333337
sg7
F1
sg8
(lp238
g10
(F-49
F-24
tRp239
ag10
(F49
F-24
tRp240
ag10
(F49
F24
tRp241
ag10
(F-49
F24
tRp242
asg15
F1000
sg16
g10
(F438.55646332205481
F135
tRp243
sg18
F0
sa(dp244
g6
F992.33333333333337
sg7
F1
sg8
(lp245
g10
(F-24
F-49
tRp246
ag10
(F24
F-49
tRp247
ag10
(F24
F49
tRp248
ag10
(F-24
F49
tRp249
asg15
F1000
sg16
g10
(F425.04443493924168
F210
tRp250
sg18
F0
sa(dp251
g6
F992.33333333333337
sg7
F1
sg8
(lp252
g10
(F-49
F-24
tRp253
ag10
(F49
F-24
tRp254
ag10
(F49
F24
tRp255
ag10
(F-49
F24
tRp256
asg15
F1000
sg16
g10
(F437.40757850537761
F285
tRp257
sg18
F0
sa(dp258
g6
F992.33333333333337
sg7
F1
sg8
(lp259
g10
(F-49
F-24
tRp260
ag10
(F49
F-24
tRp261
ag10
(F49
F24
tRp262
ag10
(F-49
F24
tRp263
asg15
F1000
sg16
g10
(F416.14884780284893
F335
tRp264
sg18
F0
sa(dp265
g6
F992.33333333333337
sg7
F1
sg8
(lp266
g10
(F-24
F-49
tRp267
ag10
(F24
F-49
tRp268
ag10
(F24
F49
tRp269
ag10
(F-24
F49
tRp270
asg15
F1000
sg16
g10
(F363.48000323301562
F410
tRp271
sg18
F0
sa(dp272
g6
F992.33333333333337
sg7
F1
sg8
(lp273
g10
(F-24
F-49
tRp274
ag10
(F24
F-49
tRp275
ag10
(F24
F49
tRp276
ag10
(F-24
F49
tRp277
asg15
F1000
sg16
g10
(F374.07236051342983
F510
tRp278
sg18
F0
sasg75
(dp279
g77
g10
(F0
F0
tRp280
sg79
I10
ssa(dp281
g3
(lp282
(dp283
g6
Finf
sg7
Finf
sg8
(lp284
g10
(F-499
F-4
tRp285
ag10
(F499
F-4
tRp286
ag10
(F499
F4
tRp287
ag10
(F-499
F4
tRp288
asg15
F1000
sg16
g10
(F500
F5
tRp289
sg18
F0
sa(dp290
g6
F992.33333333333337
sg7
F1
sg8
(lp291
g10
(F-49
F-24
tRp292
ag10
(F49
F-24
tRp293
ag10
(F49
F24
tRp294
ag10
(F-49
F24
tRp295
asg15
F1000
sg16
g10
(F500
F35
tRp296
sg18
F0
sa(dp297
g6
F992.33333333333337
sg7
F1
sg8
(lp298
g10
(F-24
F-49
tRp299
ag10
(F24
F-49
tRp300
ag10
(F24
F49
tRp301
ag10
(F-24
F49
tRp302
asg15
F1000
sg16
g10
(F539.60486827443106
F110
tRp303
sg18
F0
sa(dp304
g6
F992.33333333333337
sg7
F1
sg8
(lp305
g10
(F-24
F-49
tRp306
ag10
(F24
F-49
tRp307
ag10
(F24
F49
tRp308
ag10
(F-24
F49
tRp309
asg15
F1000
sg16
g10
(F534.29742517103693
F210
tRp310
sg18
F0
sa(dp311
g6
F992.33333333333337
sg7
F1
sg8
(lp312
g10
(F-49
F-24
tRp313
ag10
(F49
F-24
tRp314
ag10
(F49
F24
tRp315
ag10
(F-49
F24
tRp316
asg15
F1000
sg16
g10
(F505.75351414051119
F285
tRp317
sg18
F0
sa(dp318
g6
F992.33333333333337
sg7
F1
sg8
(lp319
g10
(F-49
F-24
tRp320
ag10
(F49
F-24
tRp321
ag10
(F49
F24
tRp322
ag10
(F-49
F24
tRp323
asg15
F1000
sg16
g10
(F496.80454082233626
F335
tRp324
sg18
F0
sa(dp325
g6
F992.33333333333337
sg7
F1
sg8
(lp326
g10
(F-24
F-49
tRp327
ag10
(F24
F-49
tRp328
ag10
(F24
F49
tRp329
ag10
(F-24
F49
tRp330
asg15
F1000
sg16
g10
(F538.59591476775586
F410
tRp331
sg18
F0
sa(dp332
g6
F992.33333333333337
sg7
F1
sg8
(lp333
g10
(F-24
F-49
tRp334
ag10
(F24
F-49
tRp335
ag10
(F24
F49
tRp336
ag10
(F-24
F49
tRp337
asg15
F1000
sg16
g10
(F537.10027666530175
F510
tRp338
sg18
F0
sa(dp339
g6
F992.33333333333337
sg7
F1
sg8
(lp340
g10
(F-49
F-24
tRp341
ag10
(F49
F-24
tRp342
ag10
(F49
F24
tRp343
ag10
(F-49
F24
tRp344
asg15
F1000
sg16
g10
(F554.91897176644295
F585
tRp345
sg18
F0
sasg75
(dp346
g77
g10
(F0
F0
tRp347
sg79
I10
ssa.