ccollections
OrderedDict
p1
((lp2
(lp3
S'exp_20_4_3_space'
p4
a(lp5
(dp6
S'seq'
p7
(lp8
(F1472668074.222409
(I0
I0
tp9
tp10
asS'choices'
p11
g1
((lp12
(lp13
(I960
I40
tp14
aI01
aa(lp15
(I968
I90
tp16
aI01
aa(lp17
(I955
I140
tp18
aI01
aa(lp19
(I998
I190
tp20
aI01
aatRp21
sa(dp22
g7
(lp23
(F1472668075.1546741
g9
tp24
a(F1472668077.5321529
(I1036
I290
ttp25
asg11
g1
((lp26
(lp27
(I960
I40
tp28
aI01
aa(lp29
(I992
I115
tp30
aI01
aa(lp31
(I1008
I215
tp32
aI01
aa(lp33
(I1036
I290
tp34
aI00
aatRp35
sa(dp36
g7
(lp37
(F1472668078.547241
g9
tp38
asg11
g1
((lp39
(lp40
(I960
I40
tp41
aI01
aa(lp42
(I984
I90
tp43
aI01
aa(lp44
(I985
I165
tp45
aI01
aa(lp46
(I982
I265
tp47
aI01
aatRp48
sa(dp49
g7
(lp50
(F1472668079.4292431
g9
tp51
a(F1472668080.765873
(I1017
I215
ttp52
a(F1472668081.438421
(I1031
I315
ttp53
asg11
g1
((lp54
(lp55
(I960
I40
tp56
aI01
aa(lp57
(I978
I115
tp58
aI01
aa(lp59
(I1017
I215
tp60
aI00
aa(lp61
(I1031
I315
tp62
aI00
aatRp63
sa(dp64
g7
(lp65
(F1472668081.762563
g9
tp66
asg11
g1
((lp67
(lp68
(I960
I40
tp69
aI01
aa(lp70
(I976
I90
tp71
aI01
aa(lp72
(I1005
I165
tp73
aI01
aa(lp74
(I980
I240
tp75
aI01
aatRp76
sa(dp77
g7
(lp78
(F1472668083.0974181
g9
tp79
a(F1472668084.808924
(I974
I265
ttp80
asg11
g1
((lp81
(lp82
(I960
I40
tp83
aI01
aa(lp84
(I1005
I115
tp85
aI01
aa(lp86
(I1028
I190
tp87
aI01
aa(lp88
(I974
I265
tp89
aI00
aatRp90
sa(dp91
g7
(lp92
(F1472668085.1250119
g9
tp93
a(F1472668086.4181349
(I946
I265
ttp94
asg11
g1
((lp95
(lp96
(I960
I40
tp97
aI01
aa(lp98
(I949
I90
tp99
aI01
aa(lp100
(I992
I165
tp101
aI01
aa(lp102
(I946
I265
tp103
aI00
aatRp104
sa(dp105
g7
(lp106
(F1472668087.922981
g9
tp107
a(F1472668089.8838291
(I1029
I265
ttp108
a(F1472668090.422724
(I1041
I165
ttp109
a(F1472668091.0726819
(I1022
I90
ttp110
asg11
g1
((lp111
(lp112
(I960
I40
tp113
aI01
aa(lp114
(I1022
I90
tp115
aI00
aa(lp116
(I1041
I165
tp117
aI00
aa(lp118
(I1029
I265
tp119
aI00
aatRp120
sa(dp121
g7
(lp122
(F1472668091.2291019
g9
tp123
asg11
g1
((lp124
(lp125
(I960
I40
tp126
aI01
aa(lp127
(I933
I90
tp128
aI01
aa(lp129
(I932
I165
tp130
aI01
aa(lp131
(I925
I265
tp132
aI01
aatRp133
sa(dp134
g7
(lp135
(F1472668092.0455279
g9
tp136
asg11
g1
((lp137
(lp138
(I960
I40
tp139
aI01
aa(lp140
(I958
I90
tp141
aI01
aa(lp142
(I958
I165
tp143
aI01
aa(lp144
(I948
I265
tp145
aI01
aatRp146
sa(dp147
g7
(lp148
(F1472668092.6065061
g9
tp149
a(F1472668094.0184591
(I1105
I240
ttp150
a(F1472668094.599442
(I1078
I165
ttp151
a(F1472668095.3706911
(I1054
I90
ttp152
asg11
g1
((lp153
(lp154
(I960
I40
tp155
aI01
aa(lp156
(I1054
I90
tp157
aI00
aa(lp158
(I1078
I165
tp159
aI00
aa(lp160
(I1105
I240
tp161
aI00
aatRp162
sa(dp163
g7
(lp164
(F1472668095.692131
g9
tp165
a(F1472668097.0082331
(I1032
I190
ttp166
a(F1472668097.6205561
(I1031
I140
ttp167
a(F1472668098.292659
(I1052
I90
ttp168
asg11
g1
((lp169
(lp170
(I960
I40
tp171
aI01
aa(lp172
(I1052
I90
tp173
aI00
aa(lp174
(I1031
I140
tp175
aI00
aa(lp176
(I1032
I190
tp177
aI00
aatRp178
sa(dp179
g7
(lp180
(F1472668098.5223401
g9
tp181
a(F1472668099.717149
(I1073
I240
ttp182
a(F1472668100.384196
(I1041
I190
ttp183
asg11
g1
((lp184
(lp185
(I960
I40
tp186
aI01
aa(lp187
(I986
I115
tp188
aI01
aa(lp189
(I1041
I190
tp190
aI00
aa(lp191
(I1073
I240
tp192
aI00
aatRp193
sa(dp194
g7
(lp195
(F1472668100.913018
g9
tp196
a(F1472668102.9350979
(I972
I215
ttp197
a(F1472668103.760515
(I900
I290
ttp198
asg11
g1
((lp199
(lp200
(I960
I40
tp201
aI01
aa(lp202
(I951
I115
tp203
aI01
aa(lp204
(I972
I215
tp205
aI00
aa(lp206
(I900
I290
tp207
aI00
aatRp208
sa(dp209
g7
(lp210
(F1472668104.275485
g9
tp211
asg11
g1
((lp212
(lp213
(I960
I40
tp214
aI01
aa(lp215
(I974
I90
tp216
aI01
aa(lp217
(I999
I140
tp218
aI01
aa(lp219
(I1029
I190
tp220
aI01
aatRp221
sa(dp222
g7
(lp223
(F1472668113.1673889
g9
tp224
a(F1472668115.2912731
(I986
I315
ttp225
asg11
g1
((lp226
(lp227
(I960
I40
tp228
aI01
aa(lp229
(I962
I115
tp230
aI01
aa(lp231
(I962
I215
tp232
aI01
aa(lp233
(I986
I315
tp234
aI00
aatRp235
sa(dp236
g7
(lp237
(F1472668115.7865069
g9
tp238
asg11
g1
((lp239
(lp240
(I960
I40
tp241
aI01
aa(lp242
(I1006
I90
tp243
aI01
aa(lp244
(I986
I165
tp245
aI01
aa(lp246
(I984
I265
tp247
aI01
aatRp248
sa(dp249
g7
(lp250
(F1472668117.1603601
g9
tp251
a(F1472668119.8911669
(I952
I140
ttp252
a(F1472668123.171802
(I917
I190
ttp253
asg11
g1
((lp254
(lp255
(I960
I40
tp256
aI01
aa(lp257
(I885
I90
tp258
aI01
aa(lp259
(I952
I140
tp260
aI00
aa(lp261
(I917
I190
tp262
aI00
aatRp263
sa(dp264
g7
(lp265
(F1472668125.391665
g9
tp266
asg11
g1
((lp267
(lp268
(I960
I40
tp269
aI01
aa(lp270
(I963
I115
tp271
aI01
aa(lp272
(I962
I215
tp273
aI01
aa(lp274
(I975
I290
tp275
aI01
aatRp276
sa(dp277
g7
(lp278
(F1472668126.3419909
g9
tp279
asg11
g1
((lp280
(lp281
(I960
I40
tp282
aI01
aa(lp283
(I938
I90
tp284
aI01
aa(lp285
(I967
I140
tp286
aI01
aa(lp287
(I955
I215
tp288
aI01
aatRp289
saaa(lp290
S'exp_50_5_3_space'
p291
a(lp292
(dp293
g7
(lp294
(F1472668130.5462711
g9
tp295
a(F1472668132.1957231
(I901
I115
ttp296
a(F1472668132.978281
(I893
I215
ttp297
a(F1472668133.6962271
(I903
I315
ttp298
a(F1472668134.344286
(I891
I415
ttp299
asg11
g1
((lp300
(lp301
(I960
I40
tp302
aI01
aa(lp303
(I901
I115
tp304
aI00
aa(lp305
(I893
I215
tp306
aI00
aa(lp307
(I903
I315
tp308
aI00
aa(lp309
(I891
I415
tp310
aI00
aatRp311
sa(dp312
g7
(lp313
(F1472668134.908062
g9
tp314
a(F1472668136.181159
(I1058
I340
ttp315
a(F1472668136.788795
(I984
I290
ttp316
a(F1472668137.405355
(I986
I215
ttp317
asg11
g1
((lp318
(lp319
(I960
I40
tp320
aI01
aa(lp321
(I954
I115
tp322
aI01
aa(lp323
(I986
I215
tp324
aI00
aa(lp325
(I984
I290
tp326
aI00
aa(lp327
(I1058
I340
tp328
aI00
aatRp329
sa(dp330
g7
(lp331
(F1472668137.862052
g9
tp332
a(F1472668139.103292
(I987
I290
ttp333
asg11
g1
((lp334
(lp335
(I960
I40
tp336
aI01
aa(lp337
(I928
I90
tp338
aI01
aa(lp339
(I933
I140
tp340
aI01
aa(lp341
(I951
I215
tp342
aI01
aa(lp343
(I987
I290
tp344
aI00
aatRp345
sa(dp346
g7
(lp347
(F1472668139.481364
g9
tp348
a(F1472668141.46258
(I1024
I315
ttp349
a(F1472668142.1627791
(I1009
I240
ttp350
a(F1472668142.8042819
(I1010
I190
ttp351
a(F1472668144.63727
(I996
I115
ttp352
asg11
g1
((lp353
(lp354
(I960
I40
tp355
aI01
aa(lp356
(I996
I115
tp357
aI00
aa(lp358
(I1010
I190
tp359
aI00
aa(lp360
(I1009
I240
tp361
aI00
aa(lp362
(I1024
I315
tp363
aI00
aatRp364
sa(dp365
g7
(lp366
(F1472668145.381161
g9
tp367
a(F1472668146.625222
(I984
I290
ttp368
a(F1472668147.273247
(I957
I240
ttp369
a(F1472668147.8710079
(I884
I190
ttp370
a(F1472668148.5363381
(I907
I115
ttp371
asg11
g1
((lp372
(lp373
(I960
I40
tp374
aI01
aa(lp375
(I907
I115
tp376
aI00
aa(lp377
(I884
I190
tp378
aI00
aa(lp379
(I957
I240
tp380
aI00
aa(lp381
(I984
I290
tp382
aI00
aatRp383
sa(dp384
g7
(lp385
(F1472668149.0003309
g9
tp386
a(F1472668152.9292459
(I979
I415
ttp387
a(F1472668154.315568
(I1004
I315
ttp388
a(F1472668155.43121
(I1017
I215
ttp389
a(F1472668156.4460649
(I1013
I115
ttp390
asg11
g1
((lp391
(lp392
(I960
I40
tp393
aI01
aa(lp394
(I1013
I115
tp395
aI00
aa(lp396
(I1017
I215
tp397
aI00
aa(lp398
(I1004
I315
tp399
aI00
aa(lp400
(I979
I415
tp401
aI00
aatRp402
sa(dp403
g7
(lp404
(F1472668156.78526
g9
tp405
a(F1472668158.7969511
(I948
I240
ttp406
a(F1472668159.4193699
(I948
I240
ttp407
a(F1472668160.0074971
(I896
I315
ttp408
a(F1472668160.6112001
(I948
I240
ttp409
a(F1472668161.2810071
(I1001
I190
ttp410
asg11
g1
((lp411
(lp412
(I960
I40
tp413
aI01
aa(lp414
(I956
I115
tp415
aI01
aa(lp416
(I1001
I190
tp417
aI00
aa(lp418
(I948
I240
tp419
aI00
aa(lp420
(I896
I315
tp421
aI00
aatRp422
sa(dp423
g7
(lp424
(F1472668161.7700939
g9
tp425
a(F1472668163.2896631
(I900
I365
ttp426
a(F1472668163.9033
(I902
I290
ttp427
a(F1472668164.5929711
(I944
I215
ttp428
asg11
g1
((lp429
(lp430
(I960
I40
tp431
aI01
aa(lp432
(I974
I115
tp433
aI01
aa(lp434
(I944
I215
tp435
aI00
aa(lp436
(I902
I290
tp437
aI00
aa(lp438
(I900
I365
tp439
aI00
aatRp440
sa(dp441
g7
(lp442
(F1472668168.6574171
g9
tp443
asg11
g1
((lp444
(lp445
(I960
I40
tp446
aI01
aa(lp447
(I992
I115
tp448
aI01
aa(lp449
(I990
I215
tp450
aI01
aa(lp451
(I985
I290
tp452
aI01
aa(lp453
(I986
I365
tp454
aI01
aatRp455
sa(dp456
g7
(lp457
(F1472668170.097012
g9
tp458
a(F1472668171.5770161
(I958
I315
ttp459
a(F1472668172.2312851
(I958
I240
ttp460
a(F1472668173.1861989
(I920
I190
ttp461
asg11
g1
((lp462
(lp463
(I960
I40
tp464
aI01
aa(lp465
(I911
I115
tp466
aI01
aa(lp467
(I920
I190
tp468
aI00
aa(lp469
(I958
I240
tp470
aI00
aa(lp471
(I958
I315
tp472
aI00
aatRp473
sa(dp474
g7
(lp475
(F1472668173.369818
g9
tp476
a(F1472668175.444597
(I1039
I365
ttp477
a(F1472668176.040046
(I1028
I265
ttp478
a(F1472668176.6192019
(I1019
I165
ttp479
a(F1472668177.2730391
(I1017
I90
ttp480
asg11
g1
((lp481
(lp482
(I960
I40
tp483
aI01
aa(lp484
(I1017
I90
tp485
aI00
aa(lp486
(I1019
I165
tp487
aI00
aa(lp488
(I1028
I265
tp489
aI00
aa(lp490
(I1039
I365
tp491
aI00
aatRp492
sa(dp493
g7
(lp494
(F1472668177.546726
g9
tp495
a(F1472668178.7507961
(I1023
I340
ttp496
a(F1472668179.3413949
(I1015
I265
ttp497
asg11
g1
((lp498
(lp499
(I960
I40
tp500
aI01
aa(lp501
(I982
I90
tp502
aI01
aa(lp503
(I979
I165
tp504
aI01
aa(lp505
(I1015
I265
tp506
aI00
aa(lp507
(I1023
I340
tp508
aI00
aatRp509
sa(dp510
g7
(lp511
(F1472668182.3389821
g9
tp512
asg11
g1
((lp513
(lp514
(I960
I40
tp515
aI01
aa(lp516
(I993
I115
tp517
aI01
aa(lp518
(I983
I215
tp519
aI01
aa(lp520
(I972
I315
tp521
aI01
aa(lp522
(I1002
I390
tp523
aI01
aatRp524
sa(dp525
g7
(lp526
(F1472668184.289041
g9
tp527
asg11
g1
((lp528
(lp529
(I960
I40
tp530
aI01
aa(lp531
(I952
I90
tp532
aI01
aa(lp533
(I938
I165
tp534
aI01
aa(lp535
(I917
I240
tp536
aI01
aa(lp537
(I909
I315
tp538
aI01
aatRp539
sa(dp540
g7
(lp541
(F1472668186.0011859
g9
tp542
a(F1472668187.4383509
(I925
I290
ttp543
a(F1472668187.7594631
(I937
I240
ttp544
a(F1472668187.9580359
(I937
I240
ttp545
a(F1472668188.814441
(I957
I190
ttp546
a(F1472668189.4742401
(I937
I240
ttp547
asg11
g1
((lp548
(lp549
(I960
I40
tp550
aI01
aa(lp551
(I916
I115
tp552
aI01
aa(lp553
(I957
I190
tp554
aI00
aa(lp555
(I937
I240
tp556
aI00
aa(lp557
(I925
I290
tp558
aI00
aatRp559
sa(dp560
g7
(lp561
(F1472668190.0019989
g9
tp562
asg11
g1
((lp563
(lp564
(I960
I40
tp565
aI01
aa(lp566
(I966
I115
tp567
aI01
aa(lp568
(I972
I190
tp569
aI01
aa(lp570
(I995
I265
tp571
aI01
aa(lp572
(I1003
I365
tp573
aI01
aatRp574
sa(dp575
g7
(lp576
(F1472668194.272331
g9
tp577
asg11
g1
((lp578
(lp579
(I960
I40
tp580
aI01
aa(lp581
(I998
I90
tp582
aI01
aa(lp583
(I998
I165
tp584
aI01
aa(lp585
(I979
I240
tp586
aI01
aa(lp587
(I986
I315
tp588
aI01
aatRp589
sa(dp590
g7
(lp591
(F1472668195.13936
g9
tp592
asg11
g1
((lp593
(lp594
(I960
I40
tp595
aI01
aa(lp596
(I991
I90
tp597
aI01
aa(lp598
(I994
I140
tp599
aI01
aa(lp600
(I972
I215
tp601
aI01
aa(lp602
(I977
I315
tp603
aI01
aatRp604
sa(dp605
g7
(lp606
(F1472668195.9562969
g9
tp607
a(F1472668197.414602
(I749
I265
ttp608
a(F1472668197.9512489
(I807
I190
ttp609
a(F1472668198.2517359
(I869
I140
ttp610
a(F1472668198.45332
(I869
I140
ttp611
a(F1472668199.8478761
(I913
I90
ttp612
a(F1472668200.490685
(I869
I140
ttp613
asg11
g1
((lp614
(lp615
(I960
I40
tp616
aI01
aa(lp617
(I913
I90
tp618
aI00
aa(lp619
(I869
I140
tp620
aI00
aa(lp621
(I807
I190
tp622
aI00
aa(lp623
(I749
I265
tp624
aI00
aatRp625
sa(dp626
g7
(lp627
(F1472668200.776108
g9
tp628
asg11
g1
((lp629
(lp630
(I960
I40
tp631
aI01
aa(lp632
(I1008
I90
tp633
aI01
aa(lp634
(I952
I140
tp635
aI01
aa(lp636
(I979
I215
tp637
aI01
aa(lp638
(I991
I290
tp639
aI01
aatRp640
sa(dp641
g7
(lp642
(F1472668202.0991199
g9
tp643
a(F1472668204.7339971
(I977
I340
ttp644
asg11
g1
((lp645
(lp646
(I960
I40
tp647
aI01
aa(lp648
(I926
I90
tp649
aI01
aa(lp650
(I945
I165
tp651
aI01
aa(lp652
(I932
I265
tp653
aI01
aa(lp654
(I977
I340
tp655
aI00
aatRp656
sa(dp657
g7
(lp658
(F1472668205.312115
g9
tp659
a(F1472668208.3970721
(I886
I315
ttp660
a(F1472668208.948694
(I875
I215
ttp661
a(F1472668209.5988171
(I881
I140
ttp662
a(F1472668211.981602
(I935
I90
ttp663
asg11
g1
((lp664
(lp665
(I960
I40
tp666
aI01
aa(lp667
(I935
I90
tp668
aI00
aa(lp669
(I881
I140
tp670
aI00
aa(lp671
(I875
I215
tp672
aI00
aa(lp673
(I886
I315
tp674
aI00
aatRp675
sa(dp676
g7
(lp677
(F1472668212.3119099
g9
tp678
a(F1472668213.9589131
(I1058
I315
ttp679
a(F1472668214.5611429
(I1084
I215
ttp680
a(F1472668215.4597869
(I1035
I140
ttp681
asg11
g1
((lp682
(lp683
(I960
I40
tp684
aI01
aa(lp685
(I975
I90
tp686
aI01
aa(lp687
(I1035
I140
tp688
aI00
aa(lp689
(I1084
I215
tp690
aI00
aa(lp691
(I1058
I315
tp692
aI00
aatRp693
sa(dp694
g7
(lp695
(F1472668215.76139
g9
tp696
a(F1472668217.591444
(I987
I290
ttp697
a(F1472668218.2451351
(I971
I340
ttp698
asg11
g1
((lp699
(lp700
(I960
I40
tp701
aI01
aa(lp702
(I941
I115
tp703
aI01
aa(lp704
(I945
I215
tp705
aI01
aa(lp706
(I987
I290
tp707
aI00
aa(lp708
(I971
I340
tp709
aI00
aatRp710
sa(dp711
g7
(lp712
(F1472668218.8448491
g9
tp713
a(F1472668220.5066969
(I1010
I215
ttp714
a(F1472668220.9018569
(I1010
I215
ttp715
a(F1472668221.6534591
(I979
I315
ttp716
a(F1472668222.8946819
(I1010
I215
ttp717
a(F1472668225.5888901
(I1010
I215
ttp718
a(F1472668226.3312221
(I1010
I215
ttp719
asg11
g1
((lp720
(lp721
(I960
I40
tp722
aI01
aa(lp723
(I987
I90
tp724
aI01
aa(lp725
(I958
I140
tp726
aI01
aa(lp727
(I1010
I215
tp728
aI00
aa(lp729
(I979
I315
tp730
aI00
aatRp731
sa(dp732
g7
(lp733
(F1472668226.7343631
g9
tp734
a(F1472668228.6443491
(I971
I340
ttp735
a(F1472668229.295084
(I971
I340
ttp736
asg11
g1
((lp737
(lp738
(I960
I40
tp739
aI01
aa(lp740
(I952
I115
tp741
aI01
aa(lp742
(I963
I215
tp743
aI01
aa(lp744
(I925
I290
tp745
aI01
aa(lp746
(I971
I340
tp747
aI01
aatRp748
sa(dp749
g7
(lp750
(F1472668229.7892029
g9
tp751
a(F1472668232.6279371
(I1017
I115
ttp752
a(F1472668233.8385501
(I1048
I390
ttp753
a(F1472668234.5152431
(I1036
I215
ttp754
a(F1472668234.9596901
(I1036
I215
ttp755
a(F1472668235.719424
(I1035
I315
ttp756
a(F1472668236.376492
(I1036
I215
ttp757
asg11
g1
((lp758
(lp759
(I960
I40
tp760
aI01
aa(lp761
(I1017
I115
tp762
aI00
aa(lp763
(I1036
I215
tp764
aI00
aa(lp765
(I1035
I315
tp766
aI00
aa(lp767
(I1048
I390
tp768
aI00
aatRp769
sa(dp770
g7
(lp771
(F1472668236.54883
g9
tp772
a(F1472668241.526603
(I911
I290
ttp773
a(F1472668245.0398669
(I980
I190
ttp774
a(F1472668245.769773
(I976
I240
ttp775
asg11
g1
((lp776
(lp777
(I960
I40
tp778
aI01
aa(lp779
(I946
I115
tp780
aI01
aa(lp781
(I980
I190
tp782
aI00
aa(lp783
(I976
I240
tp784
aI00
aa(lp785
(I911
I290
tp786
aI00
aatRp787
sa(dp788
g7
(lp789
(F1472668246.0740869
g9
tp790
a(F1472668247.9557509
(I896
I90
ttp791
a(F1472668249.791482
(I874
I165
ttp792
a(F1472668250.3796699
(I877
I265
ttp793
a(F1472668251.049859
(I872
I365
ttp794
asg11
g1
((lp795
(lp796
(I960
I40
tp797
aI01
aa(lp798
(I896
I90
tp799
aI00
aa(lp800
(I874
I165
tp801
aI00
aa(lp802
(I877
I265
tp803
aI00
aa(lp804
(I872
I365
tp805
aI00
aatRp806
sa(dp807
g7
(lp808
(F1472668251.4957139
g9
tp809
a(F1472668252.8805399
(I957
I290
ttp810
a(F1472668253.4762261
(I995
I240
ttp811
a(F1472668254.1351669
(I995
I240
ttp812
a(F1472668254.7899699
(I950
I190
ttp813
a(F1472668255.4805889
(I995
I240
ttp814
asg11
g1
((lp815
(lp816
(I960
I40
tp817
aI01
aa(lp818
(I913
I115
tp819
aI01
aa(lp820
(I950
I190
tp821
aI00
aa(lp822
(I995
I240
tp823
aI00
aa(lp824
(I957
I290
tp825
aI00
aatRp826
sa(dp827
g7
(lp828
(F1472668256.2325239
g9
tp829
a(F1472668257.6301069
(I1054
I365
ttp830
a(F1472668258.707974
(I1022
I265
ttp831
a(F1472668259.3774281
(I1030
I190
ttp832
a(F1472668259.994127
(I1011
I115
ttp833
asg11
g1
((lp834
(lp835
(I960
I40
tp836
aI01
aa(lp837
(I1011
I115
tp838
aI00
aa(lp839
(I1030
I190
tp840
aI00
aa(lp841
(I1022
I265
tp842
aI00
aa(lp843
(I1054
I365
tp844
aI00
aatRp845
sa(dp846
g7
(lp847
(F1472668260.283076
g9
tp848
a(F1472668261.6169
(I945
I390
ttp849
asg11
g1
((lp850
(lp851
(I960
I40
tp852
aI01
aa(lp853
(I919
I115
tp854
aI01
aa(lp855
(I923
I215
tp856
aI01
aa(lp857
(I916
I315
tp858
aI01
aa(lp859
(I945
I390
tp860
aI00
aatRp861
sa(dp862
g7
(lp863
(F1472668263.1397951
g9
tp864
a(F1472668264.5033951
(I937
I365
ttp865
asg11
g1
((lp866
(lp867
(I960
I40
tp868
aI01
aa(lp869
(I924
I90
tp870
aI01
aa(lp871
(I905
I165
tp872
aI01
aa(lp873
(I906
I265
tp874
aI01
aa(lp875
(I937
I365
tp876
aI00
aatRp877
sa(dp878
g7
(lp879
(F1472668264.9375801
g9
tp880
a(F1472668266.987488
(I887
I240
ttp881
a(F1472668267.652554
(I860
I290
ttp882
a(F1472668268.7276909
(I894
I165
ttp883
a(F1472668271.7166121
(I927
I90
ttp884
asg11
g1
((lp885
(lp886
(I960
I40
tp887
aI01
aa(lp888
(I927
I90
tp889
aI00
aa(lp890
(I894
I165
tp891
aI00
aa(lp892
(I887
I240
tp893
aI00
aa(lp894
(I860
I290
tp895
aI00
aatRp896
sa(dp897
g7
(lp898
(F1472668272.0146379
g9
tp899
a(F1472668273.327652
(I882
I390
ttp900
a(F1472668273.9907801
(I877
I315
ttp901
a(F1472668274.6639259
(I886
I215
ttp902
a(F1472668275.3060009
(I903
I115
ttp903
asg11
g1
((lp904
(lp905
(I960
I40
tp906
aI01
aa(lp907
(I903
I115
tp908
aI00
aa(lp909
(I886
I215
tp910
aI00
aa(lp911
(I877
I315
tp912
aI00
aa(lp913
(I882
I390
tp914
aI00
aatRp915
sa(dp916
g7
(lp917
(F1472668275.596122
g9
tp918
a(F1472668276.900207
(I1045
I140
ttp919
a(F1472668277.5877171
(I1026
I190
ttp920
a(F1472668278.54637
(I1038
I240
ttp921
asg11
g1
((lp922
(lp923
(I960
I40
tp924
aI01
aa(lp925
(I972
I90
tp926
aI01
aa(lp927
(I1045
I140
tp928
aI00
aa(lp929
(I1026
I190
tp930
aI00
aa(lp931
(I1038
I240
tp932
aI00
aatRp933
sa(dp934
g7
(lp935
(F1472668278.9199309
g9
tp936
asg11
g1
((lp937
(lp938
(I960
I40
tp939
aI01
aa(lp940
(I930
I115
tp941
aI01
aa(lp942
(I937
I190
tp943
aI01
aa(lp944
(I906
I265
tp945
aI01
aa(lp946
(I907
I365
tp947
aI01
aatRp948
sa(dp949
g7
(lp950
(F1472668280.1580861
g9
tp951
a(F1472668283.4358759
(I1018
I115
ttp952
a(F1472668284.2606759
(I977
I415
ttp953
a(F1472668284.942169
(I983
I315
ttp954
asg11
g1
((lp955
(lp956
(I960
I40
tp957
aI01
aa(lp958
(I1018
I115
tp959
aI00
aa(lp960
(I1015
I215
tp961
aI01
aa(lp962
(I983
I315
tp963
aI00
aa(lp964
(I977
I415
tp965
aI00
aatRp966
sa(dp967
g7
(lp968
(F1472668285.628155
g9
tp969
a(F1472668287.0759699
(I1069
I240
ttp970
a(F1472668287.697099
(I1023
I190
ttp971
a(F1472668288.670161
(I1034
I140
ttp972
a(F1472668289.3903711
(I1029
I90
ttp973
asg11
g1
((lp974
(lp975
(I960
I40
tp976
aI01
aa(lp977
(I1029
I90
tp978
aI00
aa(lp979
(I1034
I140
tp980
aI00
aa(lp981
(I1023
I190
tp982
aI00
aa(lp983
(I1069
I240
tp984
aI00
aatRp985
sa(dp986
g7
(lp987
(F1472668289.786561
g9
tp988
asg11
g1
((lp989
(lp990
(I960
I40
tp991
aI01
aa(lp992
(I988
I115
tp993
aI01
aa(lp994
(I1038
I190
tp995
aI01
aa(lp996
(I990
I265
tp997
aI01
aa(lp998
(I998
I365
tp999
aI01
aatRp1000
sa(dp1001
g7
(lp1002
(F1472668291.817503
g9
tp1003
asg11
g1
((lp1004
(lp1005
(I960
I40
tp1006
aI01
aa(lp1007
(I979
I90
tp1008
aI01
aa(lp1009
(I939
I165
tp1010
aI01
aa(lp1011
(I970
I265
tp1012
aI01
aa(lp1013
(I953
I365
tp1014
aI01
aatRp1015
sa(dp1016
g7
(lp1017
(F1472668294.0277331
g9
tp1018
asg11
g1
((lp1019
(lp1020
(I960
I40
tp1021
aI01
aa(lp1022
(I946
I115
tp1023
aI01
aa(lp1024
(I944
I190
tp1025
aI01
aa(lp1026
(I982
I240
tp1027
aI01
aa(lp1028
(I954
I290
tp1029
aI01
aatRp1030
sa(dp1031
g7
(lp1032
(F1472668295.015295
g9
tp1033
a(F1472668296.6858361
(I884
I415
ttp1034
a(F1472668296.980464
(I898
I315
ttp1035
a(F1472668297.1872799
(I898
I315
ttp1036
a(F1472668300.2652581
(I898
I315
ttp1037
a(F1472668301.11974
(I919
I215
ttp1038
asg11
g1
((lp1039
(lp1040
(I960
I40
tp1041
aI01
aa(lp1042
(I939
I115
tp1043
aI01
aa(lp1044
(I919
I215
tp1045
aI00
aa(lp1046
(I898
I315
tp1047
aI00
aa(lp1048
(I884
I415
tp1049
aI00
aatRp1050
sa(dp1051
g7
(lp1052
(F1472668302.3061121
g9
tp1053
asg11
g1
((lp1054
(lp1055
(I960
I40
tp1056
aI01
aa(lp1057
(I974
I115
tp1058
aI01
aa(lp1059
(I939
I190
tp1060
aI01
aa(lp1061
(I945
I265
tp1062
aI01
aa(lp1063
(I957
I365
tp1064
aI01
aatRp1065
sa(dp1066
g7
(lp1067
(F1472668303.7917759
g9
tp1068
a(F1472668305.2386489
(I1082
I165
ttp1069
a(F1472668306.0339279
(I1046
I240
ttp1070
a(F1472668306.906354
(I1065
I315
ttp1071
a(F1472668308.071476
(I1021
I90
ttp1072
asg11
g1
((lp1073
(lp1074
(I960
I40
tp1075
aI01
aa(lp1076
(I1021
I90
tp1077
aI00
aa(lp1078
(I1082
I165
tp1079
aI00
aa(lp1080
(I1046
I240
tp1081
aI00
aa(lp1082
(I1065
I315
tp1083
aI00
aatRp1084
sa(dp1085
g7
(lp1086
(F1472668308.757158
g9
tp1087
a(F1472668310.4372971
(I804
I290
ttp1088
a(F1472668311.081274
(I858
I240
ttp1089
a(F1472668311.738785
(I886
I190
ttp1090
asg11
g1
((lp1091
(lp1092
(I960
I40
tp1093
aI01
aa(lp1094
(I933
I115
tp1095
aI01
aa(lp1096
(I886
I190
tp1097
aI00
aa(lp1098
(I858
I240
tp1099
aI00
aa(lp1100
(I804
I290
tp1101
aI00
aatRp1102
sa(dp1103
g7
(lp1104
(F1472668312.146142
g9
tp1105
asg11
g1
((lp1106
(lp1107
(I960
I40
tp1108
aI01
aa(lp1109
(I899
I115
tp1110
aI01
aa(lp1111
(I879
I190
tp1112
aI01
aa(lp1113
(I904
I265
tp1114
aI01
aa(lp1115
(I915
I365
tp1116
aI01
aatRp1117
sa(dp1118
g7
(lp1119
(F1472668313.867913
g9
tp1120
a(F1472668315.3064361
(I822
I315
ttp1121
a(F1472668316.1970561
(I843
I215
ttp1122
a(F1472668317.4901919
(I895
I140
ttp1123
a(F1472668318.202426
(I918
I90
ttp1124
asg11
g1
((lp1125
(lp1126
(I960
I40
tp1127
aI01
aa(lp1128
(I918
I90
tp1129
aI00
aa(lp1130
(I895
I140
tp1131
aI00
aa(lp1132
(I843
I215
tp1133
aI00
aa(lp1134
(I822
I315
tp1135
aI00
aatRp1136
sa(dp1137
g7
(lp1138
(F1472668318.6905971
g9
tp1139
a(F1472668319.984122
(I843
I340
ttp1140
a(F1472668320.748899
(I863
I265
ttp1141
a(F1472668321.7434571
(I897
I190
ttp1142
a(F1472668324.2878931
(I914
I115
ttp1143
asg11
g1
((lp1144
(lp1145
(I960
I40
tp1146
aI01
aa(lp1147
(I914
I115
tp1148
aI00
aa(lp1149
(I897
I190
tp1150
aI00
aa(lp1151
(I863
I265
tp1152
aI00
aa(lp1153
(I843
I340
tp1154
aI00
aatRp1155
sa(dp1156
g7
(lp1157
(F1472668325.4108601
g9
tp1158
a(F1472668327.1020081
(I820
I315
ttp1159
a(F1472668327.746706
(I905
I190
ttp1160
a(F1472668328.7538829
(I836
I240
ttp1161
a(F1472668330.5616851
(I920
I115
ttp1162
a(F1472668331.4751689
(I920
I115
ttp1163
asg11
g1
((lp1164
(lp1165
(I960
I40
tp1166
aI01
aa(lp1167
(I920
I115
tp1168
aI01
aa(lp1169
(I905
I190
tp1170
aI00
aa(lp1171
(I836
I240
tp1172
aI00
aa(lp1173
(I820
I315
tp1174
aI00
aatRp1175
saaa(lp1176
S'exp_50_7_3_space'
p1177
a(lp1178
(dp1179
g7
(lp1180
(F1472668336.169539
g9
tp1181
a(F1472668337.6539879
(I1019
I515
ttp1182
a(F1472668338.3562579
(I1009
I440
ttp1183
asg11
g1
((lp1184
(lp1185
(I960
I40
tp1186
aI01
aa(lp1187
(I953
I115
tp1188
aI01
aa(lp1189
(I936
I190
tp1190
aI01
aa(lp1191
(I972
I265
tp1192
aI01
aa(lp1193
(I970
I365
tp1194
aI01
aa(lp1195
(I1009
I440
tp1196
aI00
aa(lp1197
(I1019
I515
tp1198
aI00
aatRp1199
sa(dp1200
g7
(lp1201
(F1472668339.0274911
g9
tp1202
a(F1472668341.023674
(I1010
I565
ttp1203
a(F1472668341.7779579
(I1023
I465
ttp1204
a(F1472668343.244478
(I1039
I390
ttp1205
a(F1472668345.2581041
(I1021
I115
ttp1206
a(F1472668345.910881
(I1033
I215
ttp1207
a(F1472668346.6767311
(I1045
I315
ttp1208
asg11
g1
((lp1209
(lp1210
(I960
I40
tp1211
aI01
aa(lp1212
(I1021
I115
tp1213
aI00
aa(lp1214
(I1033
I215
tp1215
aI00
aa(lp1216
(I1045
I315
tp1217
aI00
aa(lp1218
(I1039
I390
tp1219
aI00
aa(lp1220
(I1023
I465
tp1221
aI00
aa(lp1222
(I1010
I565
tp1223
aI00
aatRp1224
sa(dp1225
g7
(lp1226
(F1472668347.083406
g9
tp1227
a(F1472668349.486654
(I944
I465
ttp1228
a(F1472668349.905679
(I944
I465
ttp1229
a(F1472668350.8998671
(I951
I565
ttp1230
a(F1472668351.6629641
(I944
I465
ttp1231
a(F1472668353.4873741
(I903
I390
ttp1232
a(F1472668356.6735289
(I893
I315
ttp1233
asg11
g1
((lp1234
(lp1235
(I960
I40
tp1236
aI01
aa(lp1237
(I925
I115
tp1238
aI01
aa(lp1239
(I929
I215
tp1240
aI01
aa(lp1241
(I893
I315
tp1242
aI00
aa(lp1243
(I903
I390
tp1244
aI00
aa(lp1245
(I944
I465
tp1246
aI00
aa(lp1247
(I951
I565
tp1248
aI00
aatRp1249
sa(dp1250
g7
(lp1251
(F1472668356.9699731
g9
tp1252
asg11
g1
((lp1253
(lp1254
(I960
I40
tp1255
aI01
aa(lp1256
(I974
I90
tp1257
aI01
aa(lp1258
(I935
I165
tp1259
aI01
aa(lp1260
(I922
I265
tp1261
aI01
aa(lp1262
(I928
I365
tp1263
aI01
aa(lp1264
(I927
I440
tp1265
aI01
aa(lp1266
(I934
I515
tp1267
aI01
aatRp1268
sa(dp1269
g7
(lp1270
(F1472668358.3364429
g9
tp1271
asg11
g1
((lp1272
(lp1273
(I960
I40
tp1274
aI01
aa(lp1275
(I934
I115
tp1276
aI01
aa(lp1277
(I923
I215
tp1278
aI01
aa(lp1279
(I918
I315
tp1280
aI01
aa(lp1281
(I940
I415
tp1282
aI01
aa(lp1283
(I925
I490
tp1284
aI01
aa(lp1285
(I925
I540
tp1286
aI01
aatRp1287
sa(dp1288
g7
(lp1289
(F1472668360.180974
g9
tp1290
asg11
g1
((lp1291
(lp1292
(I960
I40
tp1293
aI01
aa(lp1294
(I975
I115
tp1295
aI01
aa(lp1296
(I994
I190
tp1297
aI01
aa(lp1298
(I994
I240
tp1299
aI01
aa(lp1300
(I995
I290
tp1301
aI01
aa(lp1302
(I999
I365
tp1303
aI01
aa(lp1304
(I983
I465
tp1305
aI01
aatRp1306
sa(dp1307
g7
(lp1308
(F1472668361.888941
g9
tp1309
a(F1472668363.4267869
(I837
I515
ttp1310
a(F1472668364.6951399
(I863
I415
ttp1311
a(F1472668365.4124179
(I856
I315
ttp1312
a(F1472668366.146246
(I868
I240
ttp1313
asg11
g1
((lp1314
(lp1315
(I960
I40
tp1316
aI01
aa(lp1317
(I925
I90
tp1318
aI01
aa(lp1319
(I916
I165
tp1320
aI01
aa(lp1321
(I868
I240
tp1322
aI00
aa(lp1323
(I856
I315
tp1324
aI00
aa(lp1325
(I863
I415
tp1326
aI00
aa(lp1327
(I837
I515
tp1328
aI00
aatRp1329
sa(dp1330
g7
(lp1331
(F1472668366.4387059
g9
tp1332
a(F1472668368.9646349
(I894
I465
ttp1333
a(F1472668369.2891829
(I894
I465
ttp1334
a(F1472668369.888917
(I914
I390
ttp1335
a(F1472668370.5609059
(I874
I565
ttp1336
a(F1472668371.181427
(I894
I465
ttp1337
asg11
g1
((lp1338
(lp1339
(I960
I40
tp1340
aI01
aa(lp1341
(I937
I115
tp1342
aI01
aa(lp1343
(I929
I215
tp1344
aI01
aa(lp1345
(I943
I315
tp1346
aI01
aa(lp1347
(I914
I390
tp1348
aI00
aa(lp1349
(I894
I465
tp1350
aI00
aa(lp1351
(I874
I565
tp1352
aI00
aatRp1353
sa(dp1354
g7
(lp1355
(F1472668373.0648351
g9
tp1356
a(F1472668375.650939
(I905
I415
ttp1357
a(F1472668376.3001101
(I910
I490
ttp1358
a(F1472668376.9602261
(I920
I565
ttp1359
asg11
g1
((lp1360
(lp1361
(I960
I40
tp1362
aI01
aa(lp1363
(I916
I115
tp1364
aI01
aa(lp1365
(I924
I215
tp1366
aI01
aa(lp1367
(I933
I315
tp1368
aI01
aa(lp1369
(I905
I415
tp1370
aI00
aa(lp1371
(I910
I490
tp1372
aI00
aa(lp1373
(I920
I565
tp1374
aI00
aatRp1375
sa(dp1376
g7
(lp1377
(F1472668377.3491659
g9
tp1378
a(F1472668378.7265749
(I1021
I90
ttp1379
a(F1472668379.3659999
(I1069
I165
ttp1380
a(F1472668379.963171
(I1069
I165
ttp1381
a(F1472668380.662384
(I1071
I265
ttp1382
a(F1472668381.3419721
(I1069
I165
ttp1383
a(F1472668382.3334949
(I1074
I365
ttp1384
a(F1472668382.9645071
(I1074
I465
ttp1385
a(F1472668383.686938
(I1074
I465
ttp1386
a(F1472668384.358783
(I1072
I565
ttp1387
a(F1472668385.005734
(I1074
I465
ttp1388
asg11
g1
((lp1389
(lp1390
(I960
I40
tp1391
aI01
aa(lp1392
(I1021
I90
tp1393
aI00
aa(lp1394
(I1069
I165
tp1395
aI00
aa(lp1396
(I1071
I265
tp1397
aI00
aa(lp1398
(I1074
I365
tp1399
aI00
aa(lp1400
(I1074
I465
tp1401
aI00
aa(lp1402
(I1072
I565
tp1403
aI00
aatRp1404
sa(dp1405
g7
(lp1406
(F1472668385.3854511
g9
tp1407
a(F1472668387.4376979
(I872
I540
ttp1408
a(F1472668388.057765
(I887
I465
ttp1409
a(F1472668388.6433229
(I906
I390
ttp1410
a(F1472668389.202481
(I900
I315
ttp1411
a(F1472668389.94204
(I916
I215
ttp1412
asg11
g1
((lp1413
(lp1414
(I960
I40
tp1415
aI01
aa(lp1416
(I933
I115
tp1417
aI01
aa(lp1418
(I916
I215
tp1419
aI00
aa(lp1420
(I900
I315
tp1421
aI00
aa(lp1422
(I906
I390
tp1423
aI00
aa(lp1424
(I887
I465
tp1425
aI00
aa(lp1426
(I872
I540
tp1427
aI00
aatRp1428
sa(dp1429
g7
(lp1430
(F1472668390.6856489
g9
tp1431
a(F1472668392.575418
(I917
I540
ttp1432
a(F1472668393.099164
(I874
I465
ttp1433
a(F1472668393.729219
(I914
I265
ttp1434
a(F1472668394.1906331
(I885
I165
ttp1435
a(F1472668394.633544
(I885
I165
ttp1436
a(F1472668395.256027
(I885
I165
ttp1437
a(F1472668396.0075171
(I885
I90
ttp1438
a(F1472668396.941968
(I895
I365
ttp1439
asg11
g1
((lp1440
(lp1441
(I960
I40
tp1442
aI01
aa(lp1443
(I885
I90
tp1444
aI00
aa(lp1445
(I885
I165
tp1446
aI00
aa(lp1447
(I914
I265
tp1448
aI00
aa(lp1449
(I895
I365
tp1450
aI00
aa(lp1451
(I874
I465
tp1452
aI00
aa(lp1453
(I917
I540
tp1454
aI00
aatRp1455
sa(dp1456
g7
(lp1457
(F1472668397.3755541
g9
tp1458
a(F1472668399.0448561
(I873
I340
ttp1459
a(F1472668400.2167089
(I870
I240
ttp1460
a(F1472668400.89784
(I909
I190
ttp1461
a(F1472668401.7531359
(I862
I290
ttp1462
asg11
g1
((lp1463
(lp1464
(I960
I40
tp1465
aI01
aa(lp1466
(I954
I90
tp1467
aI01
aa(lp1468
(I975
I140
tp1469
aI01
aa(lp1470
(I909
I190
tp1471
aI00
aa(lp1472
(I870
I240
tp1473
aI00
aa(lp1474
(I862
I290
tp1475
aI00
aa(lp1476
(I873
I340
tp1477
aI00
aatRp1478
sa(dp1479
g7
(lp1480
(F1472668402.6189201
g9
tp1481
a(F1472668405.632941
(I818
I515
ttp1482
a(F1472668406.1623549
(I822
I415
ttp1483
a(F1472668406.871243
(I875
I340
ttp1484
a(F1472668407.7221789
(I886
I265
ttp1485
a(F1472668408.3514891
(I871
I165
ttp1486
asg11
g1
((lp1487
(lp1488
(I960
I40
tp1489
aI01
aa(lp1490
(I931
I90
tp1491
aI01
aa(lp1492
(I871
I165
tp1493
aI00
aa(lp1494
(I886
I265
tp1495
aI00
aa(lp1496
(I875
I340
tp1497
aI00
aa(lp1498
(I822
I415
tp1499
aI00
aa(lp1500
(I818
I515
tp1501
aI00
aatRp1502
sa(dp1503
g7
(lp1504
(F1472668408.8849449
g9
tp1505
a(F1472668410.31076
(I859
I440
ttp1506
a(F1472668410.893199
(I885
I365
ttp1507
a(F1472668411.706759
(I957
I240
ttp1508
a(F1472668412.1377659
(I957
I240
ttp1509
a(F1472668412.9710131
(I931
I290
ttp1510
a(F1472668413.6598899
(I957
I240
ttp1511
asg11
g1
((lp1512
(lp1513
(I960
I40
tp1514
aI01
aa(lp1515
(I986
I90
tp1516
aI01
aa(lp1517
(I1001
I165
tp1518
aI01
aa(lp1519
(I957
I240
tp1520
aI00
aa(lp1521
(I931
I290
tp1522
aI00
aa(lp1523
(I885
I365
tp1524
aI00
aa(lp1525
(I859
I440
tp1526
aI00
aatRp1527
sa(dp1528
g7
(lp1529
(F1472668415.9895699
g9
tp1530
asg11
g1
((lp1531
(lp1532
(I960
I40
tp1533
aI01
aa(lp1534
(I981
I90
tp1535
aI01
aa(lp1536
(I968
I165
tp1537
aI01
aa(lp1538
(I954
I265
tp1539
aI01
aa(lp1540
(I957
I340
tp1541
aI01
aa(lp1542
(I985
I390
tp1543
aI01
aa(lp1544
(I973
I465
tp1545
aI01
aatRp1546
sa(dp1547
g7
(lp1548
(F1472668416.9283929
g9
tp1549
a(F1472668418.3041511
(I1021
I490
ttp1550
a(F1472668418.9803131
(I1043
I365
ttp1551
a(F1472668419.4272449
(I1043
I365
ttp1552
a(F1472668420.159337
(I1034
I440
ttp1553
a(F1472668420.8502691
(I1043
I365
ttp1554
a(F1472668421.7000811
(I1046
I265
ttp1555
a(F1472668423.6409941
(I1022
I190
ttp1556
asg11
g1
((lp1557
(lp1558
(I960
I40
tp1559
aI01
aa(lp1560
(I999
I115
tp1561
aI01
aa(lp1562
(I1022
I190
tp1563
aI00
aa(lp1564
(I1046
I265
tp1565
aI00
aa(lp1566
(I1043
I365
tp1567
aI00
aa(lp1568
(I1034
I440
tp1569
aI00
aa(lp1570
(I1021
I490
tp1571
aI00
aatRp1572
sa(dp1573
g7
(lp1574
(F1472668423.9760799
g9
tp1575
a(F1472668425.5864251
(I1082
I465
ttp1576
a(F1472668426.440311
(I1072
I390
ttp1577
a(F1472668428.355031
(I1058
I315
ttp1578
a(F1472668428.881531
(I1079
I240
ttp1579
a(F1472668429.960701
(I1015
I190
ttp1580
asg11
g1
((lp1581
(lp1582
(I960
I40
tp1583
aI01
aa(lp1584
(I986
I115
tp1585
aI01
aa(lp1586
(I1015
I190
tp1587
aI00
aa(lp1588
(I1079
I240
tp1589
aI00
aa(lp1590
(I1058
I315
tp1591
aI00
aa(lp1592
(I1072
I390
tp1593
aI00
aa(lp1594
(I1082
I465
tp1595
aI00
aatRp1596
sa(dp1597
g7
(lp1598
(F1472668430.2486911
g9
tp1599
a(F1472668431.321075
(I895
I440
ttp1600
a(F1472668431.990438
(I921
I365
ttp1601
a(F1472668432.9295681
(I941
I240
ttp1602
a(F1472668433.3038709
(I961
I290
ttp1603
a(F1472668436.006048
(I941
I240
ttp1604
a(F1472668436.6746769
(I961
I290
ttp1605
asg11
g1
((lp1606
(lp1607
(I960
I40
tp1608
aI01
aa(lp1609
(I981
I115
tp1610
aI01
aa(lp1611
(I977
I190
tp1612
aI01
aa(lp1613
(I941
I240
tp1614
aI01
aa(lp1615
(I961
I290
tp1616
aI01
aa(lp1617
(I921
I365
tp1618
aI00
aa(lp1619
(I895
I440
tp1620
aI00
aatRp1621
sa(dp1622
g7
(lp1623
(F1472668437.1572599
g9
tp1624
a(F1472668439.1477599
(I1042
I440
ttp1625
a(F1472668439.5960939
(I1001
I390
ttp1626
a(F1472668439.795203
(I1001
I390
ttp1627
a(F1472668440.7183721
(I1001
I390
ttp1628
asg11
g1
((lp1629
(lp1630
(I960
I40
tp1631
aI01
aa(lp1632
(I991
I90
tp1633
aI01
aa(lp1634
(I947
I165
tp1635
aI01
aa(lp1636
(I950
I240
tp1637
aI01
aa(lp1638
(I974
I315
tp1639
aI01
aa(lp1640
(I1001
I390
tp1641
aI00
aa(lp1642
(I1042
I440
tp1643
aI00
aatRp1644
sa(dp1645
g7
(lp1646
(F1472668441.6452
g9
tp1647
asg11
g1
((lp1648
(lp1649
(I960
I40
tp1650
aI01
aa(lp1651
(I959
I90
tp1652
aI01
aa(lp1653
(I893
I140
tp1654
aI01
aa(lp1655
(I918
I215
tp1656
aI01
aa(lp1657
(I894
I290
tp1658
aI01
aa(lp1659
(I883
I365
tp1660
aI01
aa(lp1661
(I907
I440
tp1662
aI01
aatRp1663
sa(dp1664
g7
(lp1665
(F1472668445.3737681
g9
tp1666
asg11
g1
((lp1667
(lp1668
(I960
I40
tp1669
aI01
aa(lp1670
(I994
I90
tp1671
aI01
aa(lp1672
(I970
I165
tp1673
aI01
aa(lp1674
(I962
I265
tp1675
aI01
aa(lp1676
(I998
I340
tp1677
aI01
aa(lp1678
(I993
I415
tp1679
aI01
aa(lp1680
(I954
I490
tp1681
aI01
aatRp1682
sa(dp1683
g7
(lp1684
(F1472668446.3655591
g9
tp1685
a(F1472668452.399096
(I978
I465
ttp1686
a(F1472668453.059175
(I956
I365
ttp1687
a(F1472668453.6868961
(I973
I290
ttp1688
a(F1472668453.8865881
(I973
I290
ttp1689
a(F1472668454.7605159
(I953
I240
ttp1690
a(F1472668455.5908699
(I973
I290
ttp1691
asg11
g1
((lp1692
(lp1693
(I960
I40
tp1694
aI01
aa(lp1695
(I918
I90
tp1696
aI01
aa(lp1697
(I922
I165
tp1698
aI01
aa(lp1699
(I953
I240
tp1700
aI00
aa(lp1701
(I973
I290
tp1702
aI00
aa(lp1703
(I956
I365
tp1704
aI00
aa(lp1705
(I978
I465
tp1706
aI00
aatRp1707
sa(dp1708
g7
(lp1709
(F1472668455.905014
g9
tp1710
asg11
g1
((lp1711
(lp1712
(I960
I40
tp1713
aI01
aa(lp1714
(I946
I115
tp1715
aI01
aa(lp1716
(I975
I215
tp1717
aI01
aa(lp1718
(I972
I290
tp1719
aI01
aa(lp1720
(I997
I365
tp1721
aI01
aa(lp1722
(I991
I465
tp1723
aI01
aa(lp1724
(I986
I565
tp1725
aI01
aatRp1726
sa(dp1727
g7
(lp1728
(F1472668458.153537
g9
tp1729
a(F1472668463.136656
(I926
I290
ttp1730
a(F1472668465.006165
(I947
I340
ttp1731
asg11
g1
((lp1732
(lp1733
(I960
I40
tp1734
aI01
aa(lp1735
(I929
I90
tp1736
aI01
aa(lp1737
(I909
I140
tp1738
aI01
aa(lp1739
(I935
I190
tp1740
aI01
aa(lp1741
(I990
I240
tp1742
aI01
aa(lp1743
(I926
I290
tp1744
aI00
aa(lp1745
(I947
I340
tp1746
aI00
aatRp1747
sa(dp1748
g7
(lp1749
(F1472668465.4804881
g9
tp1750
a(F1472668467.0545061
(I1093
I440
ttp1751
a(F1472668467.7251699
(I1105
I365
ttp1752
a(F1472668468.352515
(I1072
I290
ttp1753
a(F1472668468.981915
(I1041
I240
ttp1754
a(F1472668470.0038249
(I1024
I165
ttp1755
asg11
g1
((lp1756
(lp1757
(I960
I40
tp1758
aI01
aa(lp1759
(I973
I90
tp1760
aI01
aa(lp1761
(I1024
I165
tp1762
aI00
aa(lp1763
(I1041
I240
tp1764
aI00
aa(lp1765
(I1072
I290
tp1766
aI00
aa(lp1767
(I1105
I365
tp1768
aI00
aa(lp1769
(I1093
I440
tp1770
aI00
aatRp1771
sa(dp1772
g7
(lp1773
(F1472668470.3851509
g9
tp1774
a(F1472668473.6298449
(I905
I565
ttp1775
a(F1472668475.318851
(I941
I490
ttp1776
a(F1472668477.060745
(I952
I415
ttp1777
a(F1472668478.9281559
(I952
I415
ttp1778
asg11
g1
((lp1779
(lp1780
(I960
I40
tp1781
aI01
aa(lp1782
(I949
I115
tp1783
aI01
aa(lp1784
(I937
I215
tp1785
aI01
aa(lp1786
(I932
I315
tp1787
aI01
aa(lp1788
(I952
I415
tp1789
aI01
aa(lp1790
(I941
I490
tp1791
aI00
aa(lp1792
(I905
I565
tp1793
aI00
aatRp1794
sa(dp1795
g7
(lp1796
(F1472668479.417443
g9
tp1797
a(F1472668480.7331491
(I1098
I465
ttp1798
a(F1472668481.344434
(I1059
I390
ttp1799
a(F1472668481.9998851
(I1063
I315
ttp1800
a(F1472668482.718715
(I1041
I240
ttp1801
asg11
g1
((lp1802
(lp1803
(I960
I40
tp1804
aI01
aa(lp1805
(I1000
I115
tp1806
aI01
aa(lp1807
(I972
I190
tp1808
aI01
aa(lp1809
(I1041
I240
tp1810
aI00
aa(lp1811
(I1063
I315
tp1812
aI00
aa(lp1813
(I1059
I390
tp1814
aI00
aa(lp1815
(I1098
I465
tp1816
aI00
aatRp1817
sa(dp1818
g7
(lp1819
(F1472668483.7069409
g9
tp1820
asg11
g1
((lp1821
(lp1822
(I960
I40
tp1823
aI01
aa(lp1824
(I942
I90
tp1825
aI01
aa(lp1826
(I947
I165
tp1827
aI01
aa(lp1828
(I933
I240
tp1829
aI01
aa(lp1830
(I953
I315
tp1831
aI01
aa(lp1832
(I940
I415
tp1833
aI01
aa(lp1834
(I949
I490
tp1835
aI01
aatRp1836
sa(dp1837
g7
(lp1838
(F1472668487.8332579
g9
tp1839
a(F1472668489.5606811
(I1083
I415
ttp1840
a(F1472668490.2061059
(I1077
I340
ttp1841
a(F1472668490.8666151
(I1068
I290
ttp1842
a(F1472668491.5118451
(I1054
I215
ttp1843
a(F1472668492.484396
(I1038
I140
ttp1844
asg11
g1
((lp1845
(lp1846
(I960
I40
tp1847
aI01
aa(lp1848
(I966
I90
tp1849
aI01
aa(lp1850
(I1038
I140
tp1851
aI00
aa(lp1852
(I1054
I215
tp1853
aI00
aa(lp1854
(I1068
I290
tp1855
aI00
aa(lp1856
(I1077
I340
tp1857
aI00
aa(lp1858
(I1083
I415
tp1859
aI00
aatRp1860
sa(dp1861
g7
(lp1862
(F1472668493.549207
g9
tp1863
a(F1472668494.9833519
(I996
I415
ttp1864
a(F1472668496.955616
(I959
I340
ttp1865
asg11
g1
((lp1866
(lp1867
(I960
I40
tp1868
aI01
aa(lp1869
(I893
I90
tp1870
aI01
aa(lp1871
(I923
I140
tp1872
aI01
aa(lp1873
(I903
I190
tp1874
aI01
aa(lp1875
(I942
I265
tp1876
aI01
aa(lp1877
(I959
I340
tp1878
aI00
aa(lp1879
(I996
I415
tp1880
aI00
aatRp1881
sa(dp1882
g7
(lp1883
(F1472668498.287864
g9
tp1884
a(F1472668500.219873
(I1008
I465
ttp1885
a(F1472668500.818572
(I986
I390
ttp1886
a(F1472668501.495753
(I981
I315
ttp1887
a(F1472668502.2682199
(I968
I240
ttp1888
asg11
g1
((lp1889
(lp1890
(I960
I40
tp1891
aI01
aa(lp1892
(I929
I115
tp1893
aI01
aa(lp1894
(I923
I190
tp1895
aI01
aa(lp1896
(I968
I240
tp1897
aI00
aa(lp1898
(I981
I315
tp1899
aI00
aa(lp1900
(I986
I390
tp1901
aI00
aa(lp1902
(I1008
I465
tp1903
aI00
aatRp1904
sa(dp1905
g7
(lp1906
(F1472668504.731529
g9
tp1907
a(F1472668510.2550919
(I905
I440
ttp1908
a(F1472668510.9022689
(I891
I365
ttp1909
a(F1472668511.4603751
(I912
I290
ttp1910
a(F1472668512.005259
(I910
I240
ttp1911
a(F1472668512.5741191
(I899
I165
ttp1912
a(F1472668513.2571371
(I911
I90
ttp1913
asg11
g1
((lp1914
(lp1915
(I960
I40
tp1916
aI01
aa(lp1917
(I911
I90
tp1918
aI00
aa(lp1919
(I899
I165
tp1920
aI00
aa(lp1921
(I910
I240
tp1922
aI00
aa(lp1923
(I912
I290
tp1924
aI00
aa(lp1925
(I891
I365
tp1926
aI00
aa(lp1927
(I905
I440
tp1928
aI00
aatRp1929
sa(dp1930
g7
(lp1931
(F1472668513.5511971
g9
tp1932
asg11
g1
((lp1933
(lp1934
(I960
I40
tp1935
aI01
aa(lp1936
(I954
I115
tp1937
aI01
aa(lp1938
(I974
I215
tp1939
aI01
aa(lp1940
(I948
I315
tp1941
aI01
aa(lp1942
(I937
I390
tp1943
aI01
aa(lp1944
(I923
I440
tp1945
aI01
aa(lp1946
(I939
I515
tp1947
aI01
aatRp1948
sa(dp1949
g7
(lp1950
(F1472668515.0511589
g9
tp1951
a(F1472668516.4675651
(I1029
I365
ttp1952
a(F1472668517.0762401
(I1020
I290
ttp1953
a(F1472668520.309402
(I1029
I365
ttp1954
a(F1472668521.7351201
(I1020
I290
ttp1955
asg11
g1
((lp1956
(lp1957
(I960
I40
tp1958
aI01
aa(lp1959
(I956
I90
tp1960
aI01
aa(lp1961
(I963
I140
tp1962
aI01
aa(lp1963
(I1012
I190
tp1964
aI01
aa(lp1965
(I971
I240
tp1966
aI01
aa(lp1967
(I1020
I290
tp1968
aI01
aa(lp1969
(I1029
I365
tp1970
aI01
aatRp1971
sa(dp1972
g7
(lp1973
(F1472668522.4150021
g9
tp1974
asg11
g1
((lp1975
(lp1976
(I960
I40
tp1977
aI01
aa(lp1978
(I993
I90
tp1979
aI01
aa(lp1980
(I1012
I140
tp1981
aI01
aa(lp1982
(I995
I190
tp1983
aI01
aa(lp1984
(I975
I265
tp1985
aI01
aa(lp1986
(I970
I340
tp1987
aI01
aa(lp1988
(I959
I390
tp1989
aI01
aatRp1990
sa(dp1991
g7
(lp1992
(F1472668523.3309059
g9
tp1993
asg11
g1
((lp1994
(lp1995
(I960
I40
tp1996
aI01
aa(lp1997
(I954
I90
tp1998
aI01
aa(lp1999
(I993
I165
tp2000
aI01
aa(lp2001
(I958
I240
tp2002
aI01
aa(lp2003
(I991
I290
tp2004
aI01
aa(lp2005
(I991
I340
tp2006
aI01
aa(lp2007
(I970
I415
tp2008
aI01
aatRp2009
sa(dp2010
g7
(lp2011
(F1472668524.2196829
g9
tp2012
a(F1472668526.3555579
(I975
I490
ttp2013
a(F1472668527.0350549
(I976
I440
ttp2014
a(F1472668527.6661839
(I919
I390
ttp2015
asg11
g1
((lp2016
(lp2017
(I960
I40
tp2018
aI01
aa(lp2019
(I929
I115
tp2020
aI01
aa(lp2021
(I924
I215
tp2022
aI01
aa(lp2023
(I905
I315
tp2024
aI01
aa(lp2025
(I919
I390
tp2026
aI00
aa(lp2027
(I976
I440
tp2028
aI00
aa(lp2029
(I975
I490
tp2030
aI00
aatRp2031
sa(dp2032
g7
(lp2033
(F1472668528.298847
g9
tp2034
a(F1472668532.3906331
(I988
I540
ttp2035
a(F1472668532.9973171
(I973
I465
ttp2036
a(F1472668533.566896
(I1001
I365
ttp2037
a(F1472668534.2496741
(I991
I290
ttp2038
asg11
g1
((lp2039
(lp2040
(I960
I40
tp2041
aI01
aa(lp2042
(I937
I115
tp2043
aI01
aa(lp2044
(I962
I215
tp2045
aI01
aa(lp2046
(I991
I290
tp2047
aI00
aa(lp2048
(I1001
I365
tp2049
aI00
aa(lp2050
(I973
I465
tp2051
aI00
aa(lp2052
(I988
I540
tp2053
aI00
aatRp2054
sa(dp2055
g7
(lp2056
(F1472668534.596359
g9
tp2057
asg11
g1
((lp2058
(lp2059
(I960
I40
tp2060
aI01
aa(lp2061
(I974
I90
tp2062
aI01
aa(lp2063
(I964
I165
tp2064
aI01
aa(lp2065
(I980
I240
tp2066
aI01
aa(lp2067
(I911
I290
tp2068
aI01
aa(lp2069
(I911
I340
tp2070
aI01
aa(lp2071
(I946
I390
tp2072
aI01
aatRp2073
sa(dp2074
g7
(lp2075
(F1472668536.7657809
g9
tp2076
a(F1472668538.346139
(I916
I390
ttp2077
a(F1472668539.825124
(I919
I315
ttp2078
a(F1472668540.7782171
(I897
I240
ttp2079
a(F1472668541.522218
(I990
I140
ttp2080
a(F1472668542.0412271
(I990
I140
ttp2081
a(F1472668542.6599281
(I967
I190
ttp2082
a(F1472668543.3312659
(I990
I140
ttp2083
asg11
g1
((lp2084
(lp2085
(I960
I40
tp2086
aI01
aa(lp2087
(I1023
I90
tp2088
aI01
aa(lp2089
(I990
I140
tp2090
aI00
aa(lp2091
(I967
I190
tp2092
aI00
aa(lp2093
(I897
I240
tp2094
aI00
aa(lp2095
(I919
I315
tp2096
aI00
aa(lp2097
(I916
I390
tp2098
aI00
aatRp2099
sa(dp2100
g7
(lp2101
(F1472668543.7723861
g9
tp2102
a(F1472668545.511878
(I846
I340
ttp2103
a(F1472668546.2845559
(I792
I390
ttp2104
a(F1472668547.182421
(I893
I265
ttp2105
a(F1472668547.855217
(I876
I190
ttp2106
a(F1472668548.184433
(I901
I140
ttp2107
asg11
g1
((lp2108
(lp2109
(I960
I40
tp2110
aI01
aa(lp2111
(I973
I90
tp2112
aI01
aa(lp2113
(I901
I140
tp2114
aI00
aa(lp2115
(I876
I190
tp2116
aI00
aa(lp2117
(I893
I265
tp2118
aI00
aa(lp2119
(I846
I340
tp2120
aI00
aa(lp2121
(I792
I390
tp2122
aI00
aatRp2123
sa(dp2124
g7
(lp2125
(F1472668548.737596
g9
tp2126
a(F1472668549.800535
(I863
I490
ttp2127
a(F1472668550.646811
(I897
I415
ttp2128
a(F1472668551.24558
(I925
I315
ttp2129
asg11
g1
((lp2130
(lp2131
(I960
I40
tp2132
aI01
aa(lp2133
(I922
I90
tp2134
aI01
aa(lp2135
(I942
I165
tp2136
aI01
aa(lp2137
(I949
I240
tp2138
aI01
aa(lp2139
(I925
I315
tp2140
aI00
aa(lp2141
(I897
I415
tp2142
aI00
aa(lp2143
(I863
I490
tp2144
aI00
aatRp2145
sa(dp2146
g7
(lp2147
(F1472668552.474689
g9
tp2148
a(F1472668553.468864
(I1030
I440
ttp2149
a(F1472668553.805553
(I1020
I365
ttp2150
a(F1472668554.155381
(I1020
I365
ttp2151
a(F1472668554.7253571
(I1020
I365
ttp2152
a(F1472668556.0498731
(I1063
I290
ttp2153
a(F1472668556.9799571
(I1086
I240
ttp2154
a(F1472668557.428412
(I1033
I190
ttp2155
a(F1472668557.6352611
(I1033
I190
ttp2156
a(F1472668558.435209
(I1033
I190
ttp2157
asg11
g1
((lp2158
(lp2159
(I960
I40
tp2160
aI01
aa(lp2161
(I1017
I115
tp2162
aI01
aa(lp2163
(I1033
I190
tp2164
aI00
aa(lp2165
(I1086
I240
tp2166
aI00
aa(lp2167
(I1063
I290
tp2168
aI00
aa(lp2169
(I1020
I365
tp2170
aI00
aa(lp2171
(I1030
I440
tp2172
aI00
aatRp2173
sa(dp2174
g7
(lp2175
(F1472668558.8378439
g9
tp2176
a(F1472668561.1358409
(I930
I215
ttp2177
a(F1472668561.9828241
(I942
I315
ttp2178
a(F1472668562.792496
(I941
I415
ttp2179
a(F1472668564.065161
(I961
I490
ttp2180
a(F1472668565.041163
(I954
I540
ttp2181
asg11
g1
((lp2182
(lp2183
(I960
I40
tp2184
aI01
aa(lp2185
(I905
I115
tp2186
aI01
aa(lp2187
(I930
I215
tp2188
aI00
aa(lp2189
(I942
I315
tp2190
aI00
aa(lp2191
(I941
I415
tp2192
aI00
aa(lp2193
(I961
I490
tp2194
aI00
aa(lp2195
(I954
I540
tp2196
aI00
aatRp2197
sa(dp2198
g7
(lp2199
(F1472668565.4117351
g9
tp2200
asg11
g1
((lp2201
(lp2202
(I960
I40
tp2203
aI01
aa(lp2204
(I989
I115
tp2205
aI01
aa(lp2206
(I993
I190
tp2207
aI01
aa(lp2208
(I1027
I240
tp2209
aI01
aa(lp2210
(I997
I315
tp2211
aI01
aa(lp2212
(I1004
I415
tp2213
aI01
aa(lp2214
(I1025
I490
tp2215
aI01
aatRp2216
sa(dp2217
g7
(lp2218
(F1472668566.3086929
g9
tp2219
a(F1472668567.9059269
(I1061
I165
ttp2220
a(F1472668569.1834619
(I1089
I265
ttp2221
a(F1472668570.0451241
(I1104
I340
ttp2222
a(F1472668570.76671
(I1073
I415
ttp2223
a(F1472668571.779582
(I1096
I490
ttp2224
a(F1472668573.651159
(I1015
I90
ttp2225
asg11
g1
((lp2226
(lp2227
(I960
I40
tp2228
aI01
aa(lp2229
(I1015
I90
tp2230
aI00
aa(lp2231
(I1061
I165
tp2232
aI00
aa(lp2233
(I1089
I265
tp2234
aI00
aa(lp2235
(I1104
I340
tp2236
aI00
aa(lp2237
(I1073
I415
tp2238
aI00
aa(lp2239
(I1096
I490
tp2240
aI00
aatRp2241
sa(dp2242
g7
(lp2243
(F1472668574.007812
g9
tp2244
a(F1472668575.393281
(I964
I340
ttp2245
a(F1472668576.0230329
(I946
I290
ttp2246
a(F1472668576.7300701
(I938
I240
ttp2247
asg11
g1
((lp2248
(lp2249
(I960
I40
tp2250
aI01
aa(lp2251
(I979
I90
tp2252
aI01
aa(lp2253
(I912
I140
tp2254
aI01
aa(lp2255
(I889
I190
tp2256
aI01
aa(lp2257
(I938
I240
tp2258
aI00
aa(lp2259
(I946
I290
tp2260
aI00
aa(lp2261
(I964
I340
tp2262
aI00
aatRp2263
sa(dp2264
g7
(lp2265
(F1472668578.391808
g9
tp2266
asg11
g1
((lp2267
(lp2268
(I960
I40
tp2269
aI01
aa(lp2270
(I988
I115
tp2271
aI01
aa(lp2272
(I998
I215
tp2273
aI01
aa(lp2274
(I977
I315
tp2275
aI01
aa(lp2276
(I990
I415
tp2277
aI01
aa(lp2278
(I1000
I515
tp2279
aI01
aa(lp2280
(I1005
I590
tp2281
aI01
aatRp2282
sa(dp2283
g7
(lp2284
(F1472668581.739845
g9
tp2285
asg11
g1
((lp2286
(lp2287
(I960
I40
tp2288
aI01
aa(lp2289
(I973
I115
tp2290
aI01
aa(lp2291
(I1000
I215
tp2292
aI01
aa(lp2293
(I993
I315
tp2294
aI01
aa(lp2295
(I968
I390
tp2296
aI01
aa(lp2297
(I980
I465
tp2298
aI01
aa(lp2299
(I967
I540
tp2300
aI01
aatRp2301
saaa(lp2302
S'exp_30_10_3_space'
p2303
a(lp2304
(dp2305
g7
(lp2306
(F1472668589.3180399
g9
tp2307
a(F1472668591.442322
(I996
I790
ttp2308
a(F1472668592.0813589
(I990
I715
ttp2309
a(F1472668592.7232881
(I1008
I615
ttp2310
a(F1472668593.5256679
(I989
I515
ttp2311
asg11
g1
((lp2312
(lp2313
(I960
I40
tp2314
aI01
aa(lp2315
(I1000
I115
tp2316
aI01
aa(lp2317
(I1004
I190
tp2318
aI01
aa(lp2319
(I1020
I265
tp2320
aI01
aa(lp2321
(I1009
I365
tp2322
aI01
aa(lp2323
(I1047
I440
tp2324
aI01
aa(lp2325
(I989
I515
tp2326
aI00
aa(lp2327
(I1008
I615
tp2328
aI00
aa(lp2329
(I990
I715
tp2330
aI00
aa(lp2331
(I996
I790
tp2332
aI00
aatRp2333
sa(dp2334
g7
(lp2335
(F1472668593.982729
g9
tp2336
a(F1472668596.1620071
(I960
I815
ttp2337
a(F1472668596.865334
(I940
I715
ttp2338
a(F1472668597.586961
(I951
I640
ttp2339
asg11
g1
((lp2340
(lp2341
(I960
I40
tp2342
aI01
aa(lp2343
(I904
I90
tp2344
aI01
aa(lp2345
(I933
I165
tp2346
aI01
aa(lp2347
(I920
I265
tp2348
aI01
aa(lp2349
(I911
I365
tp2350
aI01
aa(lp2351
(I922
I465
tp2352
aI01
aa(lp2353
(I912
I565
tp2354
aI01
aa(lp2355
(I951
I640
tp2356
aI00
aa(lp2357
(I940
I715
tp2358
aI00
aa(lp2359
(I960
I815
tp2360
aI00
aatRp2361
sa(dp2362
g7
(lp2363
(F1472668598.766155
g9
tp2364
a(F1472668602.912076
(I952
I515
ttp2365
a(F1472668603.571995
(I949
I690
ttp2366
a(F1472668604.4083869
(I968
I765
ttp2367
a(F1472668605.2909319
(I971
I865
ttp2368
a(F1472668606.1646681
(I960
I615
ttp2369
asg11
g1
((lp2370
(lp2371
(I960
I40
tp2372
aI01
aa(lp2373
(I962
I115
tp2374
aI01
aa(lp2375
(I937
I215
tp2376
aI01
aa(lp2377
(I943
I315
tp2378
aI01
aa(lp2379
(I930
I415
tp2380
aI01
aa(lp2381
(I952
I515
tp2382
aI00
aa(lp2383
(I960
I615
tp2384
aI00
aa(lp2385
(I949
I690
tp2386
aI00
aa(lp2387
(I968
I765
tp2388
aI00
aa(lp2389
(I971
I865
tp2390
aI00
aatRp2391
sa(dp2392
g7
(lp2393
(F1472668606.5941689
g9
tp2394
a(F1472668608.5876939
(I885
I365
ttp2395
a(F1472668609.248441
(I891
I440
ttp2396
a(F1472668609.8827331
(I891
I490
ttp2397
a(F1472668610.760793
(I856
I615
ttp2398
a(F1472668611.2081411
(I856
I615
ttp2399
a(F1472668611.9940629
(I863
I715
ttp2400
a(F1472668612.5993209
(I856
I615
ttp2401
a(F1472668613.564153
(I871
I540
ttp2402
a(F1472668618.898021
(I941
I290
ttp2403
asg11
g1
((lp2404
(lp2405
(I960
I40
tp2406
aI01
aa(lp2407
(I930
I115
tp2408
aI01
aa(lp2409
(I908
I215
tp2410
aI01
aa(lp2411
(I941
I290
tp2412
aI00
aa(lp2413
(I885
I365
tp2414
aI00
aa(lp2415
(I891
I440
tp2416
aI00
aa(lp2417
(I891
I490
tp2418
aI00
aa(lp2419
(I871
I540
tp2420
aI00
aa(lp2421
(I856
I615
tp2422
aI00
aa(lp2423
(I863
I715
tp2424
aI00
aatRp2425
sa(dp2426
g7
(lp2427
(F1472668619.3837509
g9
tp2428
a(F1472668620.7809329
(I1025
I590
ttp2429
a(F1472668621.54282
(I1025
I590
ttp2430
a(F1472668622.6409481
(I1022
I640
ttp2431
a(F1472668623.246568
(I1025
I590
ttp2432
a(F1472668623.8192811
(I1013
I515
ttp2433
a(F1472668624.6066029
(I963
I390
ttp2434
a(F1472668625.007462
(I963
I390
ttp2435
a(F1472668625.7882171
(I1000
I440
ttp2436
a(F1472668626.4776001
(I963
I390
ttp2437
asg11
g1
((lp2438
(lp2439
(I960
I40
tp2440
aI01
aa(lp2441
(I951
I90
tp2442
aI01
aa(lp2443
(I945
I140
tp2444
aI01
aa(lp2445
(I927
I215
tp2446
aI01
aa(lp2447
(I922
I315
tp2448
aI01
aa(lp2449
(I963
I390
tp2450
aI00
aa(lp2451
(I1000
I440
tp2452
aI00
aa(lp2453
(I1013
I515
tp2454
aI00
aa(lp2455
(I1025
I590
tp2456
aI00
aa(lp2457
(I1022
I640
tp2458
aI00
aatRp2459
sa(dp2460
g7
(lp2461
(F1472668627.05019
g9
tp2462
asg11
g1
((lp2463
(lp2464
(I960
I40
tp2465
aI01
aa(lp2466
(I971
I115
tp2467
aI01
aa(lp2468
(I963
I215
tp2469
aI01
aa(lp2470
(I976
I290
tp2471
aI01
aa(lp2472
(I964
I340
tp2473
aI01
aa(lp2474
(I961
I390
tp2475
aI01
aa(lp2476
(I964
I465
tp2477
aI01
aa(lp2478
(I975
I540
tp2479
aI01
aa(lp2480
(I1007
I615
tp2481
aI01
aa(lp2482
(I985
I715
tp2483
aI01
aatRp2484
sa(dp2485
g7
(lp2486
(F1472668629.867533
g9
tp2487
a(F1472668631.6374509
(I984
I440
ttp2488
a(F1472668632.9984159
(I984
I540
ttp2489
a(F1472668633.749047
(I945
I590
ttp2490
a(F1472668634.5173609
(I902
I665
ttp2491
a(F1472668635.5920861
(I958
I490
ttp2492
asg11
g1
((lp2493
(lp2494
(I960
I40
tp2495
aI01
aa(lp2496
(I967
I115
tp2497
aI01
aa(lp2498
(I972
I215
tp2499
aI01
aa(lp2500
(I1012
I290
tp2501
aI01
aa(lp2502
(I1008
I365
tp2503
aI01
aa(lp2504
(I984
I440
tp2505
aI00
aa(lp2506
(I958
I490
tp2507
aI00
aa(lp2508
(I984
I540
tp2509
aI00
aa(lp2510
(I945
I590
tp2511
aI00
aa(lp2512
(I902
I665
tp2513
aI00
aatRp2514
sa(dp2515
g7
(lp2516
(F1472668635.9618881
g9
tp2517
a(F1472668638.7653041
(I987
I615
ttp2518
a(F1472668639.592797
(I969
I515
ttp2519
a(F1472668640.684196
(I976
I440
ttp2520
a(F1472668641.5539041
(I943
I390
ttp2521
a(F1472668642.237546
(I952
I340
ttp2522
a(F1472668643.049875
(I904
I290
ttp2523
asg11
g1
((lp2524
(lp2525
(I960
I40
tp2526
aI01
aa(lp2527
(I918
I90
tp2528
aI01
aa(lp2529
(I948
I165
tp2530
aI01
aa(lp2531
(I951
I240
tp2532
aI01
aa(lp2533
(I904
I290
tp2534
aI00
aa(lp2535
(I952
I340
tp2536
aI00
aa(lp2537
(I943
I390
tp2538
aI00
aa(lp2539
(I976
I440
tp2540
aI00
aa(lp2541
(I969
I515
tp2542
aI00
aa(lp2543
(I987
I615
tp2544
aI00
aatRp2545
sa(dp2546
g7
(lp2547
(F1472668643.4091711
g9
tp2548
a(F1472668644.723695
(I864
I765
ttp2549
a(F1472668645.630033
(I861
I690
ttp2550
a(F1472668646.340801
(I867
I615
ttp2551
a(F1472668647.1204979
(I904
I540
ttp2552
asg11
g1
((lp2553
(lp2554
(I960
I40
tp2555
aI01
aa(lp2556
(I965
I115
tp2557
aI01
aa(lp2558
(I966
I215
tp2559
aI01
aa(lp2560
(I933
I315
tp2561
aI01
aa(lp2562
(I941
I415
tp2563
aI01
aa(lp2564
(I956
I490
tp2565
aI01
aa(lp2566
(I904
I540
tp2567
aI00
aa(lp2568
(I867
I615
tp2569
aI00
aa(lp2570
(I861
I690
tp2571
aI00
aa(lp2572
(I864
I765
tp2573
aI00
aatRp2574
sa(dp2575
g7
(lp2576
(F1472668648.035383
g9
tp2577
a(F1472668649.602694
(I996
I690
ttp2578
a(F1472668650.2247479
(I966
I640
ttp2579
a(F1472668650.878262
(I1014
I590
ttp2580
a(F1472668651.595608
(I1013
I515
ttp2581
a(F1472668653.5893321
(I1013
I515
ttp2582
a(F1472668654.5690579
(I1014
I590
ttp2583
a(F1472668655.1996319
(I966
I640
ttp2584
a(F1472668655.943469
(I996
I690
ttp2585
asg11
g1
((lp2586
(lp2587
(I960
I40
tp2588
aI01
aa(lp2589
(I977
I115
tp2590
aI01
aa(lp2591
(I994
I190
tp2592
aI01
aa(lp2593
(I1005
I265
tp2594
aI01
aa(lp2595
(I999
I340
tp2596
aI01
aa(lp2597
(I1011
I415
tp2598
aI01
aa(lp2599
(I1013
I515
tp2600
aI01
aa(lp2601
(I1014
I590
tp2602
aI01
aa(lp2603
(I966
I640
tp2604
aI01
aa(lp2605
(I996
I690
tp2606
aI01
aatRp2607
sa(dp2608
g7
(lp2609
(F1472668656.4879091
g9
tp2610
asg11
g1
((lp2611
(lp2612
(I960
I40
tp2613
aI01
aa(lp2614
(I1006
I115
tp2615
aI01
aa(lp2616
(I1000
I215
tp2617
aI01
aa(lp2618
(I983
I315
tp2619
aI01
aa(lp2620
(I1026
I390
tp2621
aI01
aa(lp2622
(I991
I465
tp2623
aI01
aa(lp2624
(I982
I565
tp2625
aI01
aa(lp2626
(I994
I665
tp2627
aI01
aa(lp2628
(I989
I765
tp2629
aI01
aa(lp2630
(I982
I865
tp2631
aI01
aatRp2632
sa(dp2633
g7
(lp2634
(F1472668658.1959169
g9
tp2635
a(F1472668664.3335719
(I974
I615
ttp2636
a(F1472668664.9766829
(I981
I540
ttp2637
a(F1472668665.8863161
(I1004
I390
ttp2638
a(F1472668666.5034499
(I1004
I390
ttp2639
a(F1472668667.471019
(I978
I490
ttp2640
a(F1472668668.1780441
(I976
I440
ttp2641
a(F1472668668.871901
(I1004
I390
ttp2642
a(F1472668669.5652039
(I985
I315
ttp2643
a(F1472668670.4485469
(I999
I240
ttp2644
asg11
g1
((lp2645
(lp2646
(I960
I40
tp2647
aI01
aa(lp2648
(I992
I90
tp2649
aI01
aa(lp2650
(I1021
I165
tp2651
aI01
aa(lp2652
(I999
I240
tp2653
aI00
aa(lp2654
(I985
I315
tp2655
aI00
aa(lp2656
(I1004
I390
tp2657
aI00
aa(lp2658
(I976
I440
tp2659
aI00
aa(lp2660
(I978
I490
tp2661
aI00
aa(lp2662
(I981
I540
tp2663
aI00
aa(lp2664
(I974
I615
tp2665
aI00
aatRp2666
sa(dp2667
g7
(lp2668
(F1472668671.561578
g9
tp2669
a(F1472668672.8859241
(I745
I590
ttp2670
a(F1472668673.581037
(I743
I515
ttp2671
a(F1472668674.457288
(I786
I440
ttp2672
a(F1472668675.090416
(I831
I390
ttp2673
a(F1472668675.7210431
(I826
I340
ttp2674
a(F1472668676.3397329
(I834
I290
ttp2675
a(F1472668677.0315981
(I846
I240
ttp2676
a(F1472668677.7430229
(I860
I165
ttp2677
a(F1472668679.233923
(I894
I90
ttp2678
asg11
g1
((lp2679
(lp2680
(I960
I40
tp2681
aI01
aa(lp2682
(I894
I90
tp2683
aI00
aa(lp2684
(I860
I165
tp2685
aI00
aa(lp2686
(I846
I240
tp2687
aI00
aa(lp2688
(I834
I290
tp2689
aI00
aa(lp2690
(I826
I340
tp2691
aI00
aa(lp2692
(I831
I390
tp2693
aI00
aa(lp2694
(I786
I440
tp2695
aI00
aa(lp2696
(I743
I515
tp2697
aI00
aa(lp2698
(I745
I590
tp2699
aI00
aatRp2700
sa(dp2701
g7
(lp2702
(F1472668679.660008
g9
tp2703
asg11
g1
((lp2704
(lp2705
(I960
I40
tp2706
aI01
aa(lp2707
(I978
I90
tp2708
aI01
aa(lp2709
(I960
I165
tp2710
aI01
aa(lp2711
(I942
I240
tp2712
aI01
aa(lp2713
(I992
I290
tp2714
aI01
aa(lp2715
(I1013
I340
tp2716
aI01
aa(lp2717
(I979
I390
tp2718
aI01
aa(lp2719
(I976
I465
tp2720
aI01
aa(lp2721
(I963
I565
tp2722
aI01
aa(lp2723
(I960
I640
tp2724
aI01
aatRp2725
sa(dp2726
g7
(lp2727
(F1472668680.8987751
g9
tp2728
asg11
g1
((lp2729
(lp2730
(I960
I40
tp2731
aI01
aa(lp2732
(I980
I90
tp2733
aI01
aa(lp2734
(I970
I165
tp2735
aI01
aa(lp2736
(I969
I265
tp2737
aI01
aa(lp2738
(I983
I340
tp2739
aI01
aa(lp2740
(I967
I390
tp2741
aI01
aa(lp2742
(I968
I465
tp2743
aI01
aa(lp2744
(I984
I540
tp2745
aI01
aa(lp2746
(I981
I615
tp2747
aI01
aa(lp2748
(I984
I715
tp2749
aI01
aatRp2750
sa(dp2751
g7
(lp2752
(F1472668681.6737809
g9
tp2753
a(F1472668683.5768399
(I887
I765
ttp2754
a(F1472668684.251194
(I853
I665
ttp2755
a(F1472668684.8912671
(I871
I590
ttp2756
a(F1472668685.6019299
(I886
I540
ttp2757
a(F1472668687.7118521
(I914
I465
ttp2758
a(F1472668688.337158
(I914
I390
ttp2759
a(F1472668689.2806411
(I928
I315
ttp2760
a(F1472668692.818682
(I936
I215
ttp2761
asg11
g1
((lp2762
(lp2763
(I960
I40
tp2764
aI01
aa(lp2765
(I910
I115
tp2766
aI01
aa(lp2767
(I936
I215
tp2768
aI00
aa(lp2769
(I928
I315
tp2770
aI00
aa(lp2771
(I914
I390
tp2772
aI00
aa(lp2773
(I914
I465
tp2774
aI00
aa(lp2775
(I886
I540
tp2776
aI00
aa(lp2777
(I871
I590
tp2778
aI00
aa(lp2779
(I853
I665
tp2780
aI00
aa(lp2781
(I887
I765
tp2782
aI00
aatRp2783
sa(dp2784
g7
(lp2785
(F1472668693.3005011
g9
tp2786
a(F1472668694.9691761
(I1052
I640
ttp2787
a(F1472668695.5301731
(I1035
I590
ttp2788
a(F1472668696.0802
(I1033
I515
ttp2789
a(F1472668696.7462151
(I1021
I440
ttp2790
a(F1472668697.3570759
(I1027
I365
ttp2791
a(F1472668698.0886359
(I998
I290
ttp2792
asg11
g1
((lp2793
(lp2794
(I960
I40
tp2795
aI01
aa(lp2796
(I972
I90
tp2797
aI01
aa(lp2798
(I985
I140
tp2799
aI01
aa(lp2800
(I978
I215
tp2801
aI01
aa(lp2802
(I998
I290
tp2803
aI00
aa(lp2804
(I1027
I365
tp2805
aI00
aa(lp2806
(I1021
I440
tp2807
aI00
aa(lp2808
(I1033
I515
tp2809
aI00
aa(lp2810
(I1035
I590
tp2811
aI00
aa(lp2812
(I1052
I640
tp2813
aI00
aatRp2814
sa(dp2815
g7
(lp2816
(F1472668698.455704
g9
tp2817
a(F1472668699.8520341
(I1119
I715
ttp2818
a(F1472668700.5147541
(I1077
I640
ttp2819
a(F1472668701.138252
(I1071
I565
ttp2820
a(F1472668701.914305
(I1049
I490
ttp2821
a(F1472668702.6061521
(I998
I440
ttp2822
a(F1472668706.0136399
(I996
I365
ttp2823
asg11
g1
((lp2824
(lp2825
(I960
I40
tp2826
aI01
aa(lp2827
(I996
I115
tp2828
aI01
aa(lp2829
(I996
I190
tp2830
aI01
aa(lp2831
(I979
I265
tp2832
aI01
aa(lp2833
(I996
I365
tp2834
aI00
aa(lp2835
(I998
I440
tp2836
aI00
aa(lp2837
(I1049
I490
tp2838
aI00
aa(lp2839
(I1071
I565
tp2840
aI00
aa(lp2841
(I1077
I640
tp2842
aI00
aa(lp2843
(I1119
I715
tp2844
aI00
aatRp2845
sa(dp2846
g7
(lp2847
(F1472668706.5860281
g9
tp2848
a(F1472668708.0527649
(I927
I815
ttp2849
a(F1472668708.7054009
(I927
I815
ttp2850
a(F1472668709.890944
(I927
I815
ttp2851
a(F1472668710.582293
(I922
I715
ttp2852
a(F1472668711.2755671
(I923
I615
ttp2853
a(F1472668711.9788859
(I938
I515
ttp2854
a(F1472668714.672169
(I953
I440
ttp2855
a(F1472668715.533056
(I961
I365
ttp2856
asg11
g1
((lp2857
(lp2858
(I960
I40
tp2859
aI01
aa(lp2860
(I938
I90
tp2861
aI01
aa(lp2862
(I931
I165
tp2863
aI01
aa(lp2864
(I933
I265
tp2865
aI01
aa(lp2866
(I961
I365
tp2867
aI00
aa(lp2868
(I953
I440
tp2869
aI00
aa(lp2870
(I938
I515
tp2871
aI00
aa(lp2872
(I923
I615
tp2873
aI00
aa(lp2874
(I922
I715
tp2875
aI00
aa(lp2876
(I927
I815
tp2877
aI00
aatRp2878
sa(dp2879
g7
(lp2880
(F1472668715.9982941
g9
tp2881
a(F1472668718.120404
(I965
I765
ttp2882
a(F1472668718.8326361
(I951
I665
ttp2883
a(F1472668719.5989649
(I951
I590
ttp2884
a(F1472668720.47245
(I932
I540
ttp2885
asg11
g1
((lp2886
(lp2887
(I960
I40
tp2888
aI01
aa(lp2889
(I906
I90
tp2890
aI01
aa(lp2891
(I933
I165
tp2892
aI01
aa(lp2893
(I920
I265
tp2894
aI01
aa(lp2895
(I928
I365
tp2896
aI01
aa(lp2897
(I907
I465
tp2898
aI01
aa(lp2899
(I932
I540
tp2900
aI00
aa(lp2901
(I951
I590
tp2902
aI00
aa(lp2903
(I951
I665
tp2904
aI00
aa(lp2905
(I965
I765
tp2906
aI00
aatRp2907
sa(dp2908
g7
(lp2909
(F1472668724.6980331
g9
tp2910
a(F1472668726.1258631
(I925
I540
ttp2911
a(F1472668726.749938
(I925
I490
ttp2912
a(F1472668727.4003079
(I965
I440
ttp2913
a(F1472668728.1197801
(I955
I390
ttp2914
asg11
g1
((lp2915
(lp2916
(I960
I40
tp2917
aI01
aa(lp2918
(I941
I90
tp2919
aI01
aa(lp2920
(I977
I140
tp2921
aI01
aa(lp2922
(I987
I190
tp2923
aI01
aa(lp2924
(I971
I240
tp2925
aI01
aa(lp2926
(I982
I315
tp2927
aI01
aa(lp2928
(I955
I390
tp2929
aI00
aa(lp2930
(I965
I440
tp2931
aI00
aa(lp2932
(I925
I490
tp2933
aI00
aa(lp2934
(I925
I540
tp2935
aI00
aatRp2936
sa(dp2937
g7
(lp2938
(F1472668730.6963251
g9
tp2939
a(F1472668732.6599751
(I944
I765
ttp2940
a(F1472668733.366708
(I944
I765
ttp2941
a(F1472668733.8614709
(I944
I765
ttp2942
a(F1472668734.5703609
(I951
I690
ttp2943
a(F1472668735.496115
(I974
I615
ttp2944
a(F1472668736.339536
(I991
I515
ttp2945
a(F1472668737.031703
(I994
I415
ttp2946
a(F1472668738.0329161
(I1016
I340
ttp2947
a(F1472668740.070781
(I1016
I340
ttp2948
asg11
g1
((lp2949
(lp2950
(I960
I40
tp2951
aI01
aa(lp2952
(I977
I90
tp2953
aI01
aa(lp2954
(I999
I165
tp2955
aI01
aa(lp2956
(I1012
I265
tp2957
aI01
aa(lp2958
(I1016
I340
tp2959
aI01
aa(lp2960
(I994
I415
tp2961
aI00
aa(lp2962
(I991
I515
tp2963
aI00
aa(lp2964
(I974
I615
tp2965
aI00
aa(lp2966
(I951
I690
tp2967
aI00
aa(lp2968
(I944
I765
tp2969
aI00
aatRp2970
sa(dp2971
g7
(lp2972
(F1472668740.5627689
g9
tp2973
a(F1472668742.1999991
(I1073
I740
ttp2974
a(F1472668742.8612111
(I1062
I690
ttp2975
a(F1472668743.502696
(I1012
I640
ttp2976
a(F1472668747.9491291
(I984
I565
ttp2977
asg11
g1
((lp2978
(lp2979
(I960
I40
tp2980
aI01
aa(lp2981
(I946
I115
tp2982
aI01
aa(lp2983
(I943
I215
tp2984
aI01
aa(lp2985
(I941
I315
tp2986
aI01
aa(lp2987
(I952
I390
tp2988
aI01
aa(lp2989
(I972
I465
tp2990
aI01
aa(lp2991
(I984
I565
tp2992
aI00
aa(lp2993
(I1012
I640
tp2994
aI00
aa(lp2995
(I1062
I690
tp2996
aI00
aa(lp2997
(I1073
I740
tp2998
aI00
aatRp2999
sa(dp3000
g7
(lp3001
(F1472668751.263818
g9
tp3002
a(F1472668752.731873
(I988
I815
ttp3003
a(F1472668753.4524679
(I983
I715
ttp3004
a(F1472668754.1484661
(I978
I615
ttp3005
a(F1472668754.8900549
(I971
I540
ttp3006
a(F1472668758.038743
(I925
I465
ttp3007
asg11
g1
((lp3008
(lp3009
(I960
I40
tp3010
aI01
aa(lp3011
(I921
I115
tp3012
aI01
aa(lp3013
(I940
I215
tp3014
aI01
aa(lp3015
(I937
I315
tp3016
aI01
aa(lp3017
(I902
I390
tp3018
aI01
aa(lp3019
(I925
I465
tp3020
aI00
aa(lp3021
(I971
I540
tp3022
aI00
aa(lp3023
(I978
I615
tp3024
aI00
aa(lp3025
(I983
I715
tp3026
aI00
aa(lp3027
(I988
I815
tp3028
aI00
aatRp3029
sa(dp3030
g7
(lp3031
(F1472668758.4300179
g9
tp3032
a(F1472668760.0926249
(I981
I740
ttp3033
a(F1472668760.68578
(I981
I665
ttp3034
a(F1472668761.2545569
(I972
I590
ttp3035
a(F1472668761.88111
(I979
I515
ttp3036
a(F1472668762.549336
(I972
I415
ttp3037
a(F1472668764.626405
(I996
I315
ttp3038
a(F1472668765.6809039
(I947
I240
ttp3039
asg11
g1
((lp3040
(lp3041
(I960
I40
tp3042
aI01
aa(lp3043
(I933
I90
tp3044
aI01
aa(lp3045
(I926
I165
tp3046
aI01
aa(lp3047
(I947
I240
tp3048
aI00
aa(lp3049
(I996
I315
tp3050
aI00
aa(lp3051
(I972
I415
tp3052
aI00
aa(lp3053
(I979
I515
tp3054
aI00
aa(lp3055
(I972
I590
tp3056
aI00
aa(lp3057
(I981
I665
tp3058
aI00
aa(lp3059
(I981
I740
tp3060
aI00
aatRp3061
sa(dp3062
g7
(lp3063
(F1472668766.018244
g9
tp3064
a(F1472668768.3735471
(I1019
I765
ttp3065
a(F1472668768.9542639
(I1014
I690
ttp3066
a(F1472668769.6065919
(I1036
I615
ttp3067
a(F1472668770.3647261
(I1034
I515
ttp3068
a(F1472668773.4879019
(I1011
I415
ttp3069
asg11
g1
((lp3070
(lp3071
(I960
I40
tp3072
aI01
aa(lp3073
(I941
I115
tp3074
aI01
aa(lp3075
(I917
I190
tp3076
aI01
aa(lp3077
(I959
I265
tp3078
aI01
aa(lp3079
(I963
I340
tp3080
aI01
aa(lp3081
(I1011
I415
tp3082
aI00
aa(lp3083
(I1034
I515
tp3084
aI00
aa(lp3085
(I1036
I615
tp3086
aI00
aa(lp3087
(I1014
I690
tp3088
aI00
aa(lp3089
(I1019
I765
tp3090
aI00
aatRp3091
sa(dp3092
g7
(lp3093
(F1472668774.34426
g9
tp3094
a(F1472668775.8613629
(I987
I690
ttp3095
a(F1472668776.541574
(I1011
I640
ttp3096
a(F1472668777.296051
(I942
I590
ttp3097
a(F1472668780.8978209
(I942
I590
ttp3098
a(F1472668781.5169411
(I1011
I640
ttp3099
a(F1472668782.2367129
(I987
I690
ttp3100
asg11
g1
((lp3101
(lp3102
(I960
I40
tp3103
aI01
aa(lp3104
(I976
I115
tp3105
aI01
aa(lp3106
(I979
I215
tp3107
aI01
aa(lp3108
(I1010
I315
tp3109
aI01
aa(lp3110
(I992
I390
tp3111
aI01
aa(lp3112
(I994
I465
tp3113
aI01
aa(lp3114
(I978
I540
tp3115
aI01
aa(lp3116
(I942
I590
tp3117
aI01
aa(lp3118
(I1011
I640
tp3119
aI01
aa(lp3120
(I987
I690
tp3121
aI01
aatRp3122
sa(dp3123
g7
(lp3124
(F1472668782.7009239
g9
tp3125
a(F1472668784.5317259
(I919
I215
ttp3126
a(F1472668785.1405411
(I911
I315
ttp3127
a(F1472668785.937017
(I915
I440
ttp3128
a(F1472668786.949564
(I879
I490
ttp3129
a(F1472668787.608736
(I899
I540
ttp3130
a(F1472668788.3359449
(I895
I590
ttp3131
a(F1472668789.0827761
(I885
I640
ttp3132
a(F1472668790.6149011
(I922
I390
ttp3133
asg11
g1
((lp3134
(lp3135
(I960
I40
tp3136
aI01
aa(lp3137
(I939
I115
tp3138
aI01
aa(lp3139
(I919
I215
tp3140
aI00
aa(lp3141
(I911
I315
tp3142
aI00
aa(lp3143
(I922
I390
tp3144
aI00
aa(lp3145
(I915
I440
tp3146
aI00
aa(lp3147
(I879
I490
tp3148
aI00
aa(lp3149
(I899
I540
tp3150
aI00
aa(lp3151
(I895
I590
tp3152
aI00
aa(lp3153
(I885
I640
tp3154
aI00
aatRp3155
sa(dp3156
g7
(lp3157
(F1472668791.77982
g9
tp3158
asg11
g1
((lp3159
(lp3160
(I960
I40
tp3161
aI01
aa(lp3162
(I956
I115
tp3163
aI01
aa(lp3164
(I954
I215
tp3165
aI01
aa(lp3166
(I962
I290
tp3167
aI01
aa(lp3168
(I951
I340
tp3169
aI01
aa(lp3170
(I929
I415
tp3171
aI01
aa(lp3172
(I926
I515
tp3173
aI01
aa(lp3174
(I938
I590
tp3175
aI01
aa(lp3176
(I913
I640
tp3177
aI01
aa(lp3178
(I923
I715
tp3179
aI01
aatRp3180
sa(dp3181
g7
(lp3182
(F1472668792.9975901
g9
tp3183
asg11
g1
((lp3184
(lp3185
(I960
I40
tp3186
aI01
aa(lp3187
(I971
I115
tp3188
aI01
aa(lp3189
(I972
I215
tp3190
aI01
aa(lp3191
(I977
I290
tp3192
aI01
aa(lp3193
(I988
I340
tp3194
aI01
aa(lp3195
(I966
I415
tp3196
aI01
aa(lp3197
(I960
I490
tp3198
aI01
aa(lp3199
(I956
I565
tp3200
aI01
aa(lp3201
(I970
I640
tp3202
aI01
aa(lp3203
(I975
I715
tp3204
aI01
aatRp3205
saaatRp3206
.