ccollections
OrderedDict
p1
((lp2
(lp3
S'exp_20_4_3_space'
p4
a(lp5
(dp6
S'seq'
p7
(lp8
(F1472686921.8517139
(I0
I0
tp9
tp10
asS'choices'
p11
g1
((lp12
(lp13
(I960
I40
tp14
aI01
aa(lp15
(I968
I90
tp16
aI01
aa(lp17
(I955
I140
tp18
aI01
aa(lp19
(I998
I190
tp20
aI01
aatRp21
sa(dp22
g7
(lp23
(F1472686929.73119
g9
tp24
a(F1472686937.3102651
(I1008
I215
ttp25
a(F1472686945.7091441
(I1036
I290
ttp26
a(F1472686956.130219
(I1036
I290
ttp27
a(F1472686956.69841
(I1036
I290
ttp28
asg11
g1
((lp29
(lp30
(I960
I40
tp31
aI01
aa(lp32
(I992
I115
tp33
aI01
aa(lp34
(I1008
I215
tp35
aI00
aa(lp36
(I1036
I290
tp37
aI00
aatRp38
sa(dp39
g7
(lp40
(F1472686958.1838601
g9
tp41
asg11
g1
((lp42
(lp43
(I960
I40
tp44
aI01
aa(lp45
(I984
I90
tp46
aI01
aa(lp47
(I985
I165
tp48
aI01
aa(lp49
(I982
I265
tp50
aI01
aatRp51
sa(dp52
g7
(lp53
(F1472686961.456574
g9
tp54
a(F1472686963.8535061
(I1017
I215
ttp55
a(F1472686964.341722
(I1031
I315
ttp56
asg11
g1
((lp57
(lp58
(I960
I40
tp59
aI01
aa(lp60
(I978
I115
tp61
aI01
aa(lp62
(I1017
I215
tp63
aI00
aa(lp64
(I1031
I315
tp65
aI00
aatRp66
sa(dp67
g7
(lp68
(F1472686965.7560129
g9
tp69
asg11
g1
((lp70
(lp71
(I960
I40
tp72
aI01
aa(lp73
(I976
I90
tp74
aI01
aa(lp75
(I1005
I165
tp76
aI01
aa(lp77
(I980
I240
tp78
aI01
aatRp79
sa(dp80
g7
(lp81
(F1472686970.1948071
g9
tp82
a(F1472686977.411504
(I974
I265
ttp83
a(F1472686979.936868
(I1028
I190
ttp84
a(F1472686980.5055301
(I1005
I115
ttp85
asg11
g1
((lp86
(lp87
(I960
I40
tp88
aI01
aa(lp89
(I1005
I115
tp90
aI00
aa(lp91
(I1028
I190
tp92
aI00
aa(lp93
(I974
I265
tp94
aI00
aatRp95
sa(dp96
g7
(lp97
(F1472686981.6314411
g9
tp98
a(F1472686984.0208449
(I946
I265
ttp99
asg11
g1
((lp100
(lp101
(I960
I40
tp102
aI01
aa(lp103
(I949
I90
tp104
aI01
aa(lp105
(I992
I165
tp106
aI01
aa(lp107
(I946
I265
tp108
aI00
aatRp109
sa(dp110
g7
(lp111
(F1472686988.8951459
g9
tp112
a(F1472686991.1980131
(I1022
I90
ttp113
a(F1472686991.7918129
(I1041
I165
ttp114
a(F1472686992.3333721
(I1029
I265
ttp115
asg11
g1
((lp116
(lp117
(I960
I40
tp118
aI01
aa(lp119
(I1022
I90
tp120
aI00
aa(lp121
(I1041
I165
tp122
aI00
aa(lp123
(I1029
I265
tp124
aI00
aatRp125
sa(dp126
g7
(lp127
(F1472686994.007585
g9
tp128
asg11
g1
((lp129
(lp130
(I960
I40
tp131
aI01
aa(lp132
(I933
I90
tp133
aI01
aa(lp134
(I932
I165
tp135
aI01
aa(lp136
(I925
I265
tp137
aI01
aatRp138
sa(dp139
g7
(lp140
(F1472686996.770668
g9
tp141
asg11
g1
((lp142
(lp143
(I960
I40
tp144
aI01
aa(lp145
(I958
I90
tp146
aI01
aa(lp147
(I958
I165
tp148
aI01
aa(lp149
(I948
I265
tp150
aI01
aatRp151
sa(dp152
g7
(lp153
(F1472686997.9727409
g9
tp154
a(F1472687000.1818731
(I1054
I90
ttp155
a(F1472687000.751843
(I1078
I165
ttp156
a(F1472687001.3112869
(I1105
I240
ttp157
asg11
g1
((lp158
(lp159
(I960
I40
tp160
aI01
aa(lp161
(I1054
I90
tp162
aI00
aa(lp163
(I1078
I165
tp164
aI00
aa(lp165
(I1105
I240
tp166
aI00
aatRp167
sa(dp168
g7
(lp169
(F1472687002.487458
g9
tp170
a(F1472687004.2952139
(I1032
I190
ttp171
a(F1472687004.7844009
(I1031
I140
ttp172
a(F1472687005.307771
(I1052
I90
ttp173
asg11
g1
((lp174
(lp175
(I960
I40
tp176
aI01
aa(lp177
(I1052
I90
tp178
aI00
aa(lp179
(I1031
I140
tp180
aI00
aa(lp181
(I1032
I190
tp182
aI00
aatRp183
sa(dp184
g7
(lp185
(F1472687006.5489199
g9
tp186
a(F1472687009.9678991
(I1041
I190
ttp187
a(F1472687010.692395
(I1073
I240
ttp188
asg11
g1
((lp189
(lp190
(I960
I40
tp191
aI01
aa(lp192
(I986
I115
tp193
aI01
aa(lp194
(I1041
I190
tp195
aI00
aa(lp196
(I1073
I240
tp197
aI00
aatRp198
sa(dp199
g7
(lp200
(F1472687012.133781
g9
tp201
a(F1472687014.839402
(I900
I290
ttp202
asg11
g1
((lp203
(lp204
(I960
I40
tp205
aI01
aa(lp206
(I951
I115
tp207
aI01
aa(lp208
(I972
I215
tp209
aI01
aa(lp210
(I900
I290
tp211
aI00
aatRp212
sa(dp213
g7
(lp214
(F1472687015.7239189
g9
tp215
asg11
g1
((lp216
(lp217
(I960
I40
tp218
aI01
aa(lp219
(I974
I90
tp220
aI01
aa(lp221
(I999
I140
tp222
aI01
aa(lp223
(I1029
I190
tp224
aI01
aatRp225
sa(dp226
g7
(lp227
(F1472687018.0526609
g9
tp228
a(F1472687023.322371
(I986
I315
ttp229
asg11
g1
((lp230
(lp231
(I960
I40
tp232
aI01
aa(lp233
(I962
I115
tp234
aI01
aa(lp235
(I962
I215
tp236
aI01
aa(lp237
(I986
I315
tp238
aI00
aatRp239
sa(dp240
g7
(lp241
(F1472687025.8407569
g9
tp242
asg11
g1
((lp243
(lp244
(I960
I40
tp245
aI01
aa(lp246
(I1006
I90
tp247
aI01
aa(lp248
(I986
I165
tp249
aI01
aa(lp250
(I984
I265
tp251
aI01
aatRp252
sa(dp253
g7
(lp254
(F1472687027.9028671
g9
tp255
asg11
g1
((lp256
(lp257
(I960
I40
tp258
aI01
aa(lp259
(I885
I90
tp260
aI01
aa(lp261
(I952
I140
tp262
aI01
aa(lp263
(I917
I190
tp264
aI01
aatRp265
sa(dp266
g7
(lp267
(F1472687033.0297229
g9
tp268
asg11
g1
((lp269
(lp270
(I960
I40
tp271
aI01
aa(lp272
(I963
I115
tp273
aI01
aa(lp274
(I962
I215
tp275
aI01
aa(lp276
(I975
I290
tp277
aI01
aatRp278
sa(dp279
g7
(lp280
(F1472687034.4248459
g9
tp281
asg11
g1
((lp282
(lp283
(I960
I40
tp284
aI01
aa(lp285
(I938
I90
tp286
aI01
aa(lp287
(I967
I140
tp288
aI01
aa(lp289
(I955
I215
tp290
aI01
aatRp291
saaa(lp292
S'exp_50_5_3_space'
p293
a(lp294
(dp295
g7
(lp296
(F1472687043.3452401
g9
tp297
a(F1472687045.7400119
(I901
I115
ttp298
a(F1472687046.3270161
(I893
I215
ttp299
a(F1472687047.851923
(I903
I315
ttp300
a(F1472687048.397553
(I891
I415
ttp301
asg11
g1
((lp302
(lp303
(I960
I40
tp304
aI01
aa(lp305
(I901
I115
tp306
aI00
aa(lp307
(I893
I215
tp308
aI00
aa(lp309
(I903
I315
tp310
aI00
aa(lp311
(I891
I415
tp312
aI00
aatRp313
sa(dp314
g7
(lp315
(F1472687050.194459
g9
tp316
a(F1472687054.7595639
(I986
I215
ttp317
a(F1472687055.2747171
(I984
I290
ttp318
a(F1472687055.8872161
(I1058
I340
ttp319
asg11
g1
((lp320
(lp321
(I960
I40
tp322
aI01
aa(lp323
(I954
I115
tp324
aI01
aa(lp325
(I986
I215
tp326
aI00
aa(lp327
(I984
I290
tp328
aI00
aa(lp329
(I1058
I340
tp330
aI00
aatRp331
sa(dp332
g7
(lp333
(F1472687056.845638
g9
tp334
a(F1472687059.2954531
(I987
I290
ttp335
asg11
g1
((lp336
(lp337
(I960
I40
tp338
aI01
aa(lp339
(I928
I90
tp340
aI01
aa(lp341
(I933
I140
tp342
aI01
aa(lp343
(I951
I215
tp344
aI01
aa(lp345
(I987
I290
tp346
aI00
aatRp347
sa(dp348
g7
(lp349
(F1472687060.361697
g9
tp350
a(F1472687062.861105
(I1024
I315
ttp351
a(F1472687063.69906
(I1009
I240
ttp352
a(F1472687064.134599
(I1010
I190
ttp353
a(F1472687066.32359
(I996
I115
ttp354
asg11
g1
((lp355
(lp356
(I960
I40
tp357
aI01
aa(lp358
(I996
I115
tp359
aI00
aa(lp360
(I1010
I190
tp361
aI00
aa(lp362
(I1009
I240
tp363
aI00
aa(lp364
(I1024
I315
tp365
aI00
aatRp366
sa(dp367
g7
(lp368
(F1472687067.514555
g9
tp369
a(F1472687069.726908
(I984
I290
ttp370
a(F1472687070.1765079
(I957
I240
ttp371
a(F1472687070.6345279
(I884
I190
ttp372
a(F1472687071.0706019
(I907
I115
ttp373
asg11
g1
((lp374
(lp375
(I960
I40
tp376
aI01
aa(lp377
(I907
I115
tp378
aI00
aa(lp379
(I884
I190
tp380
aI00
aa(lp381
(I957
I240
tp382
aI00
aa(lp383
(I984
I290
tp384
aI00
aatRp385
sa(dp386
g7
(lp387
(F1472687071.926703
g9
tp388
a(F1472687074.008548
(I1013
I115
ttp389
a(F1472687074.4677861
(I1017
I215
ttp390
a(F1472687074.9674349
(I1004
I315
ttp391
a(F1472687075.4481609
(I979
I415
ttp392
asg11
g1
((lp393
(lp394
(I960
I40
tp395
aI01
aa(lp396
(I1013
I115
tp397
aI00
aa(lp398
(I1017
I215
tp399
aI00
aa(lp400
(I1004
I315
tp401
aI00
aa(lp402
(I979
I415
tp403
aI00
aatRp404
sa(dp405
g7
(lp406
(F1472687076.127918
g9
tp407
a(F1472687078.40927
(I896
I315
ttp408
a(F1472687079.2140169
(I948
I240
ttp409
a(F1472687080.275532
(I1001
I190
ttp410
asg11
g1
((lp411
(lp412
(I960
I40
tp413
aI01
aa(lp414
(I956
I115
tp415
aI01
aa(lp416
(I1001
I190
tp417
aI00
aa(lp418
(I948
I240
tp419
aI00
aa(lp420
(I896
I315
tp421
aI00
aatRp422
sa(dp423
g7
(lp424
(F1472687081.0469451
g9
tp425
a(F1472687082.488389
(I900
I365
ttp426
a(F1472687083.6675551
(I902
I290
ttp427
a(F1472687084.5641291
(I944
I215
ttp428
asg11
g1
((lp429
(lp430
(I960
I40
tp431
aI01
aa(lp432
(I974
I115
tp433
aI01
aa(lp434
(I944
I215
tp435
aI00
aa(lp436
(I902
I290
tp437
aI00
aa(lp438
(I900
I365
tp439
aI00
aatRp440
sa(dp441
g7
(lp442
(F1472687085.289278
g9
tp443
asg11
g1
((lp444
(lp445
(I960
I40
tp446
aI01
aa(lp447
(I992
I115
tp448
aI01
aa(lp449
(I990
I215
tp450
aI01
aa(lp451
(I985
I290
tp452
aI01
aa(lp453
(I986
I365
tp454
aI01
aatRp455
sa(dp456
g7
(lp457
(F1472687087.173245
g9
tp458
a(F1472687094.3675239
(I958
I315
ttp459
a(F1472687095.0409429
(I958
I240
ttp460
a(F1472687095.810432
(I920
I190
ttp461
a(F1472687096.6076341
(I911
I115
ttp462
asg11
g1
((lp463
(lp464
(I960
I40
tp465
aI01
aa(lp466
(I911
I115
tp467
aI00
aa(lp468
(I920
I190
tp469
aI00
aa(lp470
(I958
I240
tp471
aI00
aa(lp472
(I958
I315
tp473
aI00
aatRp474
sa(dp475
g7
(lp476
(F1472687097.3225591
g9
tp477
a(F1472687098.55215
(I1039
I365
ttp478
a(F1472687099.0304761
(I1028
I265
ttp479
a(F1472687099.603723
(I1019
I165
ttp480
a(F1472687100.1295879
(I1017
I90
ttp481
asg11
g1
((lp482
(lp483
(I960
I40
tp484
aI01
aa(lp485
(I1017
I90
tp486
aI00
aa(lp487
(I1019
I165
tp488
aI00
aa(lp489
(I1028
I265
tp490
aI00
aa(lp491
(I1039
I365
tp492
aI00
aatRp493
sa(dp494
g7
(lp495
(F1472687100.9441421
g9
tp496
a(F1472687102.3838
(I1023
I340
ttp497
a(F1472687102.898248
(I1015
I265
ttp498
asg11
g1
((lp499
(lp500
(I960
I40
tp501
aI01
aa(lp502
(I982
I90
tp503
aI01
aa(lp504
(I979
I165
tp505
aI01
aa(lp506
(I1015
I265
tp507
aI00
aa(lp508
(I1023
I340
tp509
aI00
aatRp510
sa(dp511
g7
(lp512
(F1472687103.6606569
g9
tp513
a(F1472687106.0176189
(I1002
I390
ttp514
a(F1472687109.1034119
(I972
I315
ttp515
a(F1472687109.613174
(I983
I215
ttp516
asg11
g1
((lp517
(lp518
(I960
I40
tp519
aI01
aa(lp520
(I993
I115
tp521
aI01
aa(lp522
(I983
I215
tp523
aI00
aa(lp524
(I972
I315
tp525
aI00
aa(lp526
(I1002
I390
tp527
aI00
aatRp528
sa(dp529
g7
(lp530
(F1472687110.9167571
g9
tp531
a(F1472687117.3771579
(I909
I315
ttp532
a(F1472687118.1602581
(I917
I240
ttp533
asg11
g1
((lp534
(lp535
(I960
I40
tp536
aI01
aa(lp537
(I952
I90
tp538
aI01
aa(lp539
(I938
I165
tp540
aI01
aa(lp541
(I917
I240
tp542
aI00
aa(lp543
(I909
I315
tp544
aI00
aatRp545
sa(dp546
g7
(lp547
(F1472687119.424623
g9
tp548
a(F1472687122.0839789
(I925
I290
ttp549
a(F1472687123.0821531
(I937
I240
ttp550
a(F1472687132.593055
(I937
I240
ttp551
a(F1472687132.999486
(I925
I290
ttp552
asg11
g1
((lp553
(lp554
(I960
I40
tp555
aI01
aa(lp556
(I916
I115
tp557
aI01
aa(lp558
(I957
I190
tp559
aI01
aa(lp560
(I937
I240
tp561
aI01
aa(lp562
(I925
I290
tp563
aI01
aatRp564
sa(dp565
g7
(lp566
(F1472687133.7060909
g9
tp567
asg11
g1
((lp568
(lp569
(I960
I40
tp570
aI01
aa(lp571
(I966
I115
tp572
aI01
aa(lp573
(I972
I190
tp574
aI01
aa(lp575
(I995
I265
tp576
aI01
aa(lp577
(I1003
I365
tp578
aI01
aatRp579
sa(dp580
g7
(lp581
(F1472687137.1753399
g9
tp582
asg11
g1
((lp583
(lp584
(I960
I40
tp585
aI01
aa(lp586
(I998
I90
tp587
aI01
aa(lp588
(I998
I165
tp589
aI01
aa(lp590
(I979
I240
tp591
aI01
aa(lp592
(I986
I315
tp593
aI01
aatRp594
sa(dp595
g7
(lp596
(F1472687138.4988451
g9
tp597
asg11
g1
((lp598
(lp599
(I960
I40
tp600
aI01
aa(lp601
(I991
I90
tp602
aI01
aa(lp603
(I994
I140
tp604
aI01
aa(lp605
(I972
I215
tp606
aI01
aa(lp607
(I977
I315
tp608
aI01
aatRp609
sa(dp610
g7
(lp611
(F1472687140.3011961
g9
tp612
a(F1472687141.4077621
(I749
I265
ttp613
a(F1472687141.8976851
(I807
I190
ttp614
a(F1472687142.3285811
(I869
I140
ttp615
a(F1472687142.8480771
(I913
I90
ttp616
asg11
g1
((lp617
(lp618
(I960
I40
tp619
aI01
aa(lp620
(I913
I90
tp621
aI00
aa(lp622
(I869
I140
tp623
aI00
aa(lp624
(I807
I190
tp625
aI00
aa(lp626
(I749
I265
tp627
aI00
aatRp628
sa(dp629
g7
(lp630
(F1472687144.63907
g9
tp631
asg11
g1
((lp632
(lp633
(I960
I40
tp634
aI01
aa(lp635
(I1008
I90
tp636
aI01
aa(lp637
(I952
I140
tp638
aI01
aa(lp639
(I979
I215
tp640
aI01
aa(lp641
(I991
I290
tp642
aI01
aatRp643
sa(dp644
g7
(lp645
(F1472687149.581826
g9
tp646
a(F1472687151.4259009
(I977
I340
ttp647
asg11
g1
((lp648
(lp649
(I960
I40
tp650
aI01
aa(lp651
(I926
I90
tp652
aI01
aa(lp653
(I945
I165
tp654
aI01
aa(lp655
(I932
I265
tp656
aI01
aa(lp657
(I977
I340
tp658
aI00
aatRp659
sa(dp660
g7
(lp661
(F1472687153.738632
g9
tp662
a(F1472687154.7533131
(I886
I315
ttp663
a(F1472687155.2363999
(I875
I215
ttp664
a(F1472687156.2894139
(I881
I140
ttp665
asg11
g1
((lp666
(lp667
(I960
I40
tp668
aI01
aa(lp669
(I935
I90
tp670
aI01
aa(lp671
(I881
I140
tp672
aI00
aa(lp673
(I875
I215
tp674
aI00
aa(lp675
(I886
I315
tp676
aI00
aatRp677
sa(dp678
g7
(lp679
(F1472687156.9455259
g9
tp680
a(F1472687158.4602399
(I1035
I140
ttp681
a(F1472687158.8569829
(I1084
I215
ttp682
a(F1472687159.2956951
(I1058
I315
ttp683
asg11
g1
((lp684
(lp685
(I960
I40
tp686
aI01
aa(lp687
(I975
I90
tp688
aI01
aa(lp689
(I1035
I140
tp690
aI00
aa(lp691
(I1084
I215
tp692
aI00
aa(lp693
(I1058
I315
tp694
aI00
aatRp695
sa(dp696
g7
(lp697
(F1472687159.993542
g9
tp698
a(F1472687162.2956431
(I987
I290
ttp699
a(F1472687162.898268
(I971
I340
ttp700
asg11
g1
((lp701
(lp702
(I960
I40
tp703
aI01
aa(lp704
(I941
I115
tp705
aI01
aa(lp706
(I945
I215
tp707
aI01
aa(lp708
(I987
I290
tp709
aI00
aa(lp710
(I971
I340
tp711
aI00
aatRp712
sa(dp713
g7
(lp714
(F1472687165.8304579
g9
tp715
a(F1472687171.5781031
(I979
I315
ttp716
a(F1472687172.926702
(I1010
I215
ttp717
asg11
g1
((lp718
(lp719
(I960
I40
tp720
aI01
aa(lp721
(I987
I90
tp722
aI01
aa(lp723
(I958
I140
tp724
aI01
aa(lp725
(I1010
I215
tp726
aI00
aa(lp727
(I979
I315
tp728
aI00
aatRp729
sa(dp730
g7
(lp731
(F1472687173.887882
g9
tp732
a(F1472687183.9442229
(I925
I290
ttp733
a(F1472687185.1084089
(I971
I340
ttp734
asg11
g1
((lp735
(lp736
(I960
I40
tp737
aI01
aa(lp738
(I952
I115
tp739
aI01
aa(lp740
(I963
I215
tp741
aI01
aa(lp742
(I925
I290
tp743
aI00
aa(lp744
(I971
I340
tp745
aI00
aatRp746
sa(dp747
g7
(lp748
(F1472687185.710705
g9
tp749
a(F1472687186.9074099
(I1048
I390
ttp750
a(F1472687187.407151
(I1035
I315
ttp751
a(F1472687187.9567029
(I1036
I215
ttp752
a(F1472687188.479795
(I1017
I115
ttp753
asg11
g1
((lp754
(lp755
(I960
I40
tp756
aI01
aa(lp757
(I1017
I115
tp758
aI00
aa(lp759
(I1036
I215
tp760
aI00
aa(lp761
(I1035
I315
tp762
aI00
aa(lp763
(I1048
I390
tp764
aI00
aatRp765
sa(dp766
g7
(lp767
(F1472687189.1163499
g9
tp768
a(F1472687190.5769999
(I911
I290
ttp769
a(F1472687192.2854109
(I976
I240
ttp770
a(F1472687192.742934
(I980
I190
ttp771
asg11
g1
((lp772
(lp773
(I960
I40
tp774
aI01
aa(lp775
(I946
I115
tp776
aI01
aa(lp777
(I980
I190
tp778
aI00
aa(lp779
(I976
I240
tp780
aI00
aa(lp781
(I911
I290
tp782
aI00
aatRp783
sa(dp784
g7
(lp785
(F1472687193.4057381
g9
tp786
a(F1472687194.512701
(I872
I365
ttp787
a(F1472687194.918159
(I877
I265
ttp788
a(F1472687195.4165881
(I874
I165
ttp789
a(F1472687195.927527
(I896
I90
ttp790
asg11
g1
((lp791
(lp792
(I960
I40
tp793
aI01
aa(lp794
(I896
I90
tp795
aI00
aa(lp796
(I874
I165
tp797
aI00
aa(lp798
(I877
I265
tp799
aI00
aa(lp800
(I872
I365
tp801
aI00
aatRp802
sa(dp803
g7
(lp804
(F1472687196.655653
g9
tp805
a(F1472687198.9737549
(I950
I190
ttp806
a(F1472687199.5990739
(I995
I240
ttp807
a(F1472687200.2240529
(I957
I290
ttp808
a(F1472687201.74668
(I913
I115
ttp809
asg11
g1
((lp810
(lp811
(I960
I40
tp812
aI01
aa(lp813
(I913
I115
tp814
aI00
aa(lp815
(I950
I190
tp816
aI00
aa(lp817
(I995
I240
tp818
aI00
aa(lp819
(I957
I290
tp820
aI00
aatRp821
sa(dp822
g7
(lp823
(F1472687202.4225619
g9
tp824
a(F1472687203.8233399
(I1054
I365
ttp825
a(F1472687204.4646189
(I1022
I265
ttp826
a(F1472687204.8962851
(I1030
I190
ttp827
a(F1472687205.3761339
(I1011
I115
ttp828
asg11
g1
((lp829
(lp830
(I960
I40
tp831
aI01
aa(lp832
(I1011
I115
tp833
aI00
aa(lp834
(I1030
I190
tp835
aI00
aa(lp836
(I1022
I265
tp837
aI00
aa(lp838
(I1054
I365
tp839
aI00
aatRp840
sa(dp841
g7
(lp842
(F1472687206.0465031
g9
tp843
a(F1472687209.8310349
(I945
I390
ttp844
asg11
g1
((lp845
(lp846
(I960
I40
tp847
aI01
aa(lp848
(I919
I115
tp849
aI01
aa(lp850
(I923
I215
tp851
aI01
aa(lp852
(I916
I315
tp853
aI01
aa(lp854
(I945
I390
tp855
aI00
aatRp856
sa(dp857
g7
(lp858
(F1472687212.794518
g9
tp859
a(F1472687214.174937
(I937
I365
ttp860
a(F1472687216.7371941
(I905
I165
ttp861
a(F1472687217.1496029
(I906
I265
ttp862
a(F1472687223.428932
(I905
I165
ttp863
a(F1472687224.041384
(I906
I265
ttp864
asg11
g1
((lp865
(lp866
(I960
I40
tp867
aI01
aa(lp868
(I924
I90
tp869
aI01
aa(lp870
(I905
I165
tp871
aI01
aa(lp872
(I906
I265
tp873
aI01
aa(lp874
(I937
I365
tp875
aI00
aatRp876
sa(dp877
g7
(lp878
(F1472687224.8728399
g9
tp879
a(F1472687225.816226
(I860
I290
ttp880
a(F1472687226.297534
(I887
I240
ttp881
a(F1472687226.8150301
(I894
I165
ttp882
a(F1472687232.5409889
(I927
I90
ttp883
asg11
g1
((lp884
(lp885
(I960
I40
tp886
aI01
aa(lp887
(I927
I90
tp888
aI00
aa(lp889
(I894
I165
tp890
aI00
aa(lp891
(I887
I240
tp892
aI00
aa(lp893
(I860
I290
tp894
aI00
aatRp895
sa(dp896
g7
(lp897
(F1472687233.2082551
g9
tp898
a(F1472687234.5366499
(I882
I390
ttp899
a(F1472687234.9062619
(I877
I315
ttp900
a(F1472687235.3416309
(I886
I215
ttp901
a(F1472687235.832984
(I903
I115
ttp902
asg11
g1
((lp903
(lp904
(I960
I40
tp905
aI01
aa(lp906
(I903
I115
tp907
aI00
aa(lp908
(I886
I215
tp909
aI00
aa(lp910
(I877
I315
tp911
aI00
aa(lp912
(I882
I390
tp913
aI00
aatRp914
sa(dp915
g7
(lp916
(F1472687236.4175899
g9
tp917
a(F1472687237.715198
(I1045
I140
ttp918
a(F1472687238.258841
(I1026
I190
ttp919
a(F1472687238.752938
(I1038
I240
ttp920
asg11
g1
((lp921
(lp922
(I960
I40
tp923
aI01
aa(lp924
(I972
I90
tp925
aI01
aa(lp926
(I1045
I140
tp927
aI00
aa(lp928
(I1026
I190
tp929
aI00
aa(lp930
(I1038
I240
tp931
aI00
aatRp932
sa(dp933
g7
(lp934
(F1472687239.2399981
g9
tp935
asg11
g1
((lp936
(lp937
(I960
I40
tp938
aI01
aa(lp939
(I930
I115
tp940
aI01
aa(lp941
(I937
I190
tp942
aI01
aa(lp943
(I906
I265
tp944
aI01
aa(lp945
(I907
I365
tp946
aI01
aatRp947
sa(dp948
g7
(lp949
(F1472687243.2601709
g9
tp950
a(F1472687244.92483
(I1018
I115
ttp951
a(F1472687246.070879
(I1015
I215
ttp952
a(F1472687246.7432671
(I983
I315
ttp953
a(F1472687247.30388
(I977
I415
ttp954
asg11
g1
((lp955
(lp956
(I960
I40
tp957
aI01
aa(lp958
(I1018
I115
tp959
aI00
aa(lp960
(I1015
I215
tp961
aI00
aa(lp962
(I983
I315
tp963
aI00
aa(lp964
(I977
I415
tp965
aI00
aatRp966
sa(dp967
g7
(lp968
(F1472687247.8747711
g9
tp969
a(F1472687249.143353
(I1029
I90
ttp970
a(F1472687249.5435541
(I1034
I140
ttp971
a(F1472687249.937403
(I1023
I190
ttp972
a(F1472687250.4082601
(I1069
I240
ttp973
asg11
g1
((lp974
(lp975
(I960
I40
tp976
aI01
aa(lp977
(I1029
I90
tp978
aI00
aa(lp979
(I1034
I140
tp980
aI00
aa(lp981
(I1023
I190
tp982
aI00
aa(lp983
(I1069
I240
tp984
aI00
aatRp985
sa(dp986
g7
(lp987
(F1472687250.9211769
g9
tp988
asg11
g1
((lp989
(lp990
(I960
I40
tp991
aI01
aa(lp992
(I988
I115
tp993
aI01
aa(lp994
(I1038
I190
tp995
aI01
aa(lp996
(I990
I265
tp997
aI01
aa(lp998
(I998
I365
tp999
aI01
aatRp1000
sa(dp1001
g7
(lp1002
(F1472687258.7252359
g9
tp1003
asg11
g1
((lp1004
(lp1005
(I960
I40
tp1006
aI01
aa(lp1007
(I979
I90
tp1008
aI01
aa(lp1009
(I939
I165
tp1010
aI01
aa(lp1011
(I970
I265
tp1012
aI01
aa(lp1013
(I953
I365
tp1014
aI01
aatRp1015
sa(dp1016
g7
(lp1017
(F1472687260.7438891
g9
tp1018
asg11
g1
((lp1019
(lp1020
(I960
I40
tp1021
aI01
aa(lp1022
(I946
I115
tp1023
aI01
aa(lp1024
(I944
I190
tp1025
aI01
aa(lp1026
(I982
I240
tp1027
aI01
aa(lp1028
(I954
I290
tp1029
aI01
aatRp1030
sa(dp1031
g7
(lp1032
(F1472687262.1448331
g9
tp1033
a(F1472687264.2041471
(I884
I415
ttp1034
a(F1472687264.872519
(I898
I315
ttp1035
a(F1472687265.2927439
(I919
I215
ttp1036
a(F1472687265.712441
(I939
I115
ttp1037
asg11
g1
((lp1038
(lp1039
(I960
I40
tp1040
aI01
aa(lp1041
(I939
I115
tp1042
aI00
aa(lp1043
(I919
I215
tp1044
aI00
aa(lp1045
(I898
I315
tp1046
aI00
aa(lp1047
(I884
I415
tp1048
aI00
aatRp1049
sa(dp1050
g7
(lp1051
(F1472687266.2101841
g9
tp1052
asg11
g1
((lp1053
(lp1054
(I960
I40
tp1055
aI01
aa(lp1056
(I974
I115
tp1057
aI01
aa(lp1058
(I939
I190
tp1059
aI01
aa(lp1060
(I945
I265
tp1061
aI01
aa(lp1062
(I957
I365
tp1063
aI01
aatRp1064
sa(dp1065
g7
(lp1066
(F1472687268.658994
g9
tp1067
a(F1472687270.0899751
(I1021
I90
ttp1068
a(F1472687270.521508
(I1082
I165
ttp1069
a(F1472687270.9518609
(I1046
I240
ttp1070
a(F1472687271.511795
(I1065
I315
ttp1071
asg11
g1
((lp1072
(lp1073
(I960
I40
tp1074
aI01
aa(lp1075
(I1021
I90
tp1076
aI00
aa(lp1077
(I1082
I165
tp1078
aI00
aa(lp1079
(I1046
I240
tp1080
aI00
aa(lp1081
(I1065
I315
tp1082
aI00
aatRp1083
sa(dp1084
g7
(lp1085
(F1472687272.0899241
g9
tp1086
a(F1472687273.4393439
(I804
I290
ttp1087
a(F1472687273.887892
(I858
I240
ttp1088
a(F1472687274.3601041
(I886
I190
ttp1089
asg11
g1
((lp1090
(lp1091
(I960
I40
tp1092
aI01
aa(lp1093
(I933
I115
tp1094
aI01
aa(lp1095
(I886
I190
tp1096
aI00
aa(lp1097
(I858
I240
tp1098
aI00
aa(lp1099
(I804
I290
tp1100
aI00
aatRp1101
sa(dp1102
g7
(lp1103
(F1472687274.8265591
g9
tp1104
a(F1472687276.1152079
(I915
I365
ttp1105
a(F1472687276.6058199
(I904
I265
ttp1106
a(F1472687277.2961791
(I879
I190
ttp1107
a(F1472687277.756536
(I899
I115
ttp1108
asg11
g1
((lp1109
(lp1110
(I960
I40
tp1111
aI01
aa(lp1112
(I899
I115
tp1113
aI00
aa(lp1114
(I879
I190
tp1115
aI00
aa(lp1116
(I904
I265
tp1117
aI00
aa(lp1118
(I915
I365
tp1119
aI00
aatRp1120
sa(dp1121
g7
(lp1122
(F1472687278.3451059
g9
tp1123
a(F1472687279.664453
(I822
I315
ttp1124
a(F1472687280.4592991
(I843
I215
ttp1125
asg11
g1
((lp1126
(lp1127
(I960
I40
tp1128
aI01
aa(lp1129
(I918
I90
tp1130
aI01
aa(lp1131
(I895
I140
tp1132
aI01
aa(lp1133
(I843
I215
tp1134
aI00
aa(lp1135
(I822
I315
tp1136
aI00
aatRp1137
sa(dp1138
g7
(lp1139
(F1472687282.5155139
g9
tp1140
a(F1472687283.52073
(I843
I340
ttp1141
a(F1472687283.9214461
(I863
I265
ttp1142
a(F1472687284.618643
(I897
I190
ttp1143
a(F1472687286.6488659
(I914
I115
ttp1144
asg11
g1
((lp1145
(lp1146
(I960
I40
tp1147
aI01
aa(lp1148
(I914
I115
tp1149
aI00
aa(lp1150
(I897
I190
tp1151
aI00
aa(lp1152
(I863
I265
tp1153
aI00
aa(lp1154
(I843
I340
tp1155
aI00
aatRp1156
sa(dp1157
g7
(lp1158
(F1472687287.1741121
g9
tp1159
a(F1472687288.4927051
(I820
I315
ttp1160
a(F1472687288.9260039
(I836
I240
ttp1161
a(F1472687289.424793
(I905
I190
ttp1162
a(F1472687292.342469
(I920
I115
ttp1163
asg11
g1
((lp1164
(lp1165
(I960
I40
tp1166
aI01
aa(lp1167
(I920
I115
tp1168
aI00
aa(lp1169
(I905
I190
tp1170
aI00
aa(lp1171
(I836
I240
tp1172
aI00
aa(lp1173
(I820
I315
tp1174
aI00
aatRp1175
saaa(lp1176
S'exp_50_7_3_space'
p1177
a(lp1178
(dp1179
g7
(lp1180
(F1472687297.5504179
g9
tp1181
a(F1472687300.11134
(I1019
I515
ttp1182
a(F1472687301.097002
(I1009
I440
ttp1183
asg11
g1
((lp1184
(lp1185
(I960
I40
tp1186
aI01
aa(lp1187
(I953
I115
tp1188
aI01
aa(lp1189
(I936
I190
tp1190
aI01
aa(lp1191
(I972
I265
tp1192
aI01
aa(lp1193
(I970
I365
tp1194
aI01
aa(lp1195
(I1009
I440
tp1196
aI00
aa(lp1197
(I1019
I515
tp1198
aI00
aatRp1199
sa(dp1200
g7
(lp1201
(F1472687306.8537641
g9
tp1202
a(F1472687309.081821
(I1021
I115
ttp1203
a(F1472687309.637017
(I1033
I215
ttp1204
a(F1472687310.256032
(I1045
I315
ttp1205
a(F1472687311.0667169
(I1039
I390
ttp1206
a(F1472687311.464215
(I1023
I465
ttp1207
a(F1472687311.9024711
(I1010
I565
ttp1208
asg11
g1
((lp1209
(lp1210
(I960
I40
tp1211
aI01
aa(lp1212
(I1021
I115
tp1213
aI00
aa(lp1214
(I1033
I215
tp1215
aI00
aa(lp1216
(I1045
I315
tp1217
aI00
aa(lp1218
(I1039
I390
tp1219
aI00
aa(lp1220
(I1023
I465
tp1221
aI00
aa(lp1222
(I1010
I565
tp1223
aI00
aatRp1224
sa(dp1225
g7
(lp1226
(F1472687312.5354099
g9
tp1227
a(F1472687315.937536
(I893
I315
ttp1228
a(F1472687316.3966601
(I903
I390
ttp1229
a(F1472687316.840508
(I944
I465
ttp1230
a(F1472687317.3781159
(I951
I565
ttp1231
a(F1472687319.0667939
(I929
I215
ttp1232
a(F1472687320.5503759
(I925
I115
ttp1233
asg11
g1
((lp1234
(lp1235
(I960
I40
tp1236
aI01
aa(lp1237
(I925
I115
tp1238
aI00
aa(lp1239
(I929
I215
tp1240
aI00
aa(lp1241
(I893
I315
tp1242
aI00
aa(lp1243
(I903
I390
tp1244
aI00
aa(lp1245
(I944
I465
tp1246
aI00
aa(lp1247
(I951
I565
tp1248
aI00
aatRp1249
sa(dp1250
g7
(lp1251
(F1472687321.30791
g9
tp1252
asg11
g1
((lp1253
(lp1254
(I960
I40
tp1255
aI01
aa(lp1256
(I974
I90
tp1257
aI01
aa(lp1258
(I935
I165
tp1259
aI01
aa(lp1260
(I922
I265
tp1261
aI01
aa(lp1262
(I928
I365
tp1263
aI01
aa(lp1264
(I927
I440
tp1265
aI01
aa(lp1266
(I934
I515
tp1267
aI01
aatRp1268
sa(dp1269
g7
(lp1270
(F1472687323.850991
g9
tp1271
asg11
g1
((lp1272
(lp1273
(I960
I40
tp1274
aI01
aa(lp1275
(I934
I115
tp1276
aI01
aa(lp1277
(I923
I215
tp1278
aI01
aa(lp1279
(I918
I315
tp1280
aI01
aa(lp1281
(I940
I415
tp1282
aI01
aa(lp1283
(I925
I490
tp1284
aI01
aa(lp1285
(I925
I540
tp1286
aI01
aatRp1287
sa(dp1288
g7
(lp1289
(F1472687326.486928
g9
tp1290
a(F1472687331.7439229
(I994
I190
ttp1291
a(F1472687332.4715281
(I994
I240
ttp1292
a(F1472687333.4740529
(I995
I290
ttp1293
a(F1472687339.160814
(I999
I365
ttp1294
a(F1472687339.6401739
(I983
I465
ttp1295
asg11
g1
((lp1296
(lp1297
(I960
I40
tp1298
aI01
aa(lp1299
(I975
I115
tp1300
aI01
aa(lp1301
(I994
I190
tp1302
aI00
aa(lp1303
(I994
I240
tp1304
aI00
aa(lp1305
(I995
I290
tp1306
aI00
aa(lp1307
(I999
I365
tp1308
aI00
aa(lp1309
(I983
I465
tp1310
aI00
aatRp1311
sa(dp1312
g7
(lp1313
(F1472687340.186475
g9
tp1314
a(F1472687341.169786
(I837
I515
ttp1315
a(F1472687341.5765719
(I863
I415
ttp1316
a(F1472687342.037468
(I856
I315
ttp1317
a(F1472687342.8082221
(I868
I240
ttp1318
asg11
g1
((lp1319
(lp1320
(I960
I40
tp1321
aI01
aa(lp1322
(I925
I90
tp1323
aI01
aa(lp1324
(I916
I165
tp1325
aI01
aa(lp1326
(I868
I240
tp1327
aI00
aa(lp1328
(I856
I315
tp1329
aI00
aa(lp1330
(I863
I415
tp1331
aI00
aa(lp1332
(I837
I515
tp1333
aI00
aatRp1334
sa(dp1335
g7
(lp1336
(F1472687343.70047
g9
tp1337
a(F1472687345.263073
(I874
I565
ttp1338
a(F1472687346.7393761
(I894
I465
ttp1339
a(F1472687347.3731899
(I914
I390
ttp1340
a(F1472687349.6881509
(I943
I315
ttp1341
a(F1472687350.2067699
(I929
I215
ttp1342
asg11
g1
((lp1343
(lp1344
(I960
I40
tp1345
aI01
aa(lp1346
(I937
I115
tp1347
aI01
aa(lp1348
(I929
I215
tp1349
aI00
aa(lp1350
(I943
I315
tp1351
aI00
aa(lp1352
(I914
I390
tp1353
aI00
aa(lp1354
(I894
I465
tp1355
aI00
aa(lp1356
(I874
I565
tp1357
aI00
aatRp1358
sa(dp1359
g7
(lp1360
(F1472687350.7310259
g9
tp1361
a(F1472687356.8715379
(I920
I565
ttp1362
a(F1472687357.3241651
(I910
I490
ttp1363
a(F1472687357.6903491
(I905
I415
ttp1364
a(F1472687360.0390301
(I933
I315
ttp1365
a(F1472687360.7029021
(I924
I215
ttp1366
asg11
g1
((lp1367
(lp1368
(I960
I40
tp1369
aI01
aa(lp1370
(I916
I115
tp1371
aI01
aa(lp1372
(I924
I215
tp1373
aI00
aa(lp1374
(I933
I315
tp1375
aI00
aa(lp1376
(I905
I415
tp1377
aI00
aa(lp1378
(I910
I490
tp1379
aI00
aa(lp1380
(I920
I565
tp1381
aI00
aatRp1382
sa(dp1383
g7
(lp1384
(F1472687361.146651
g9
tp1385
a(F1472687362.9282019
(I1021
I90
ttp1386
a(F1472687363.4233091
(I1069
I165
ttp1387
a(F1472687363.8026869
(I1071
I265
ttp1388
a(F1472687364.2839501
(I1074
I365
ttp1389
a(F1472687364.8808069
(I1074
I465
ttp1390
a(F1472687365.4102199
(I1072
I565
ttp1391
asg11
g1
((lp1392
(lp1393
(I960
I40
tp1394
aI01
aa(lp1395
(I1021
I90
tp1396
aI00
aa(lp1397
(I1069
I165
tp1398
aI00
aa(lp1399
(I1071
I265
tp1400
aI00
aa(lp1401
(I1074
I365
tp1402
aI00
aa(lp1403
(I1074
I465
tp1404
aI00
aa(lp1405
(I1072
I565
tp1406
aI00
aatRp1407
sa(dp1408
g7
(lp1409
(F1472687366.155062
g9
tp1410
a(F1472687368.952081
(I872
I540
ttp1411
a(F1472687369.707211
(I887
I465
ttp1412
a(F1472687370.9593019
(I906
I390
ttp1413
a(F1472687371.5188711
(I900
I315
ttp1414
a(F1472687372.8801379
(I916
I215
ttp1415
asg11
g1
((lp1416
(lp1417
(I960
I40
tp1418
aI01
aa(lp1419
(I933
I115
tp1420
aI01
aa(lp1421
(I916
I215
tp1422
aI00
aa(lp1423
(I900
I315
tp1424
aI00
aa(lp1425
(I906
I390
tp1426
aI00
aa(lp1427
(I887
I465
tp1428
aI00
aa(lp1429
(I872
I540
tp1430
aI00
aatRp1431
sa(dp1432
g7
(lp1433
(F1472687373.4781921
g9
tp1434
a(F1472687374.757612
(I885
I90
ttp1435
a(F1472687375.20874
(I885
I165
ttp1436
a(F1472687375.6168439
(I914
I265
ttp1437
a(F1472687376.2407861
(I895
I365
ttp1438
a(F1472687376.71877
(I874
I465
ttp1439
a(F1472687377.1792951
(I917
I540
ttp1440
asg11
g1
((lp1441
(lp1442
(I960
I40
tp1443
aI01
aa(lp1444
(I885
I90
tp1445
aI00
aa(lp1446
(I885
I165
tp1447
aI00
aa(lp1448
(I914
I265
tp1449
aI00
aa(lp1450
(I895
I365
tp1451
aI00
aa(lp1452
(I874
I465
tp1453
aI00
aa(lp1454
(I917
I540
tp1455
aI00
aatRp1456
sa(dp1457
g7
(lp1458
(F1472687377.765914
g9
tp1459
a(F1472687379.257
(I909
I190
ttp1460
a(F1472687379.764847
(I870
I240
ttp1461
a(F1472687380.1901231
(I862
I290
ttp1462
a(F1472687380.6001821
(I873
I340
ttp1463
asg11
g1
((lp1464
(lp1465
(I960
I40
tp1466
aI01
aa(lp1467
(I954
I90
tp1468
aI01
aa(lp1469
(I975
I140
tp1470
aI01
aa(lp1471
(I909
I190
tp1472
aI00
aa(lp1473
(I870
I240
tp1474
aI00
aa(lp1475
(I862
I290
tp1476
aI00
aa(lp1477
(I873
I340
tp1478
aI00
aatRp1479
sa(dp1480
g7
(lp1481
(F1472687381.0701499
g9
tp1482
a(F1472687382.635869
(I871
I165
ttp1483
a(F1472687383.2587841
(I886
I265
ttp1484
a(F1472687383.7122509
(I875
I340
ttp1485
a(F1472687384.1530089
(I822
I415
ttp1486
a(F1472687384.5418739
(I818
I515
ttp1487
asg11
g1
((lp1488
(lp1489
(I960
I40
tp1490
aI01
aa(lp1491
(I931
I90
tp1492
aI01
aa(lp1493
(I871
I165
tp1494
aI00
aa(lp1495
(I886
I265
tp1496
aI00
aa(lp1497
(I875
I340
tp1498
aI00
aa(lp1499
(I822
I415
tp1500
aI00
aa(lp1501
(I818
I515
tp1502
aI00
aatRp1503
sa(dp1504
g7
(lp1505
(F1472687384.988831
g9
tp1506
a(F1472687386.3206019
(I859
I440
ttp1507
a(F1472687386.9993739
(I885
I365
ttp1508
a(F1472687387.6797719
(I931
I290
ttp1509
a(F1472687388.175843
(I957
I240
ttp1510
asg11
g1
((lp1511
(lp1512
(I960
I40
tp1513
aI01
aa(lp1514
(I986
I90
tp1515
aI01
aa(lp1516
(I1001
I165
tp1517
aI01
aa(lp1518
(I957
I240
tp1519
aI00
aa(lp1520
(I931
I290
tp1521
aI00
aa(lp1522
(I885
I365
tp1523
aI00
aa(lp1524
(I859
I440
tp1525
aI00
aatRp1526
sa(dp1527
g7
(lp1528
(F1472687389.0187049
g9
tp1529
asg11
g1
((lp1530
(lp1531
(I960
I40
tp1532
aI01
aa(lp1533
(I981
I90
tp1534
aI01
aa(lp1535
(I968
I165
tp1536
aI01
aa(lp1537
(I954
I265
tp1538
aI01
aa(lp1539
(I957
I340
tp1540
aI01
aa(lp1541
(I985
I390
tp1542
aI01
aa(lp1543
(I973
I465
tp1544
aI01
aatRp1545
sa(dp1546
g7
(lp1547
(F1472687390.265223
g9
tp1548
a(F1472687392.455157
(I1022
I190
ttp1549
a(F1472687393.0152881
(I1046
I265
ttp1550
a(F1472687393.4243529
(I1043
I365
ttp1551
a(F1472687394.3111191
(I1034
I440
ttp1552
a(F1472687394.780684
(I1021
I490
ttp1553
a(F1472687396.960294
(I999
I115
ttp1554
asg11
g1
((lp1555
(lp1556
(I960
I40
tp1557
aI01
aa(lp1558
(I999
I115
tp1559
aI00
aa(lp1560
(I1022
I190
tp1561
aI00
aa(lp1562
(I1046
I265
tp1563
aI00
aa(lp1564
(I1043
I365
tp1565
aI00
aa(lp1566
(I1034
I440
tp1567
aI00
aa(lp1568
(I1021
I490
tp1569
aI00
aatRp1570
sa(dp1571
g7
(lp1572
(F1472687397.4361711
g9
tp1573
a(F1472687399.078845
(I1015
I190
ttp1574
a(F1472687399.5681829
(I1079
I240
ttp1575
a(F1472687399.9757149
(I1058
I315
ttp1576
a(F1472687400.4030859
(I1072
I390
ttp1577
a(F1472687400.923836
(I1082
I465
ttp1578
asg11
g1
((lp1579
(lp1580
(I960
I40
tp1581
aI01
aa(lp1582
(I986
I115
tp1583
aI01
aa(lp1584
(I1015
I190
tp1585
aI00
aa(lp1586
(I1079
I240
tp1587
aI00
aa(lp1588
(I1058
I315
tp1589
aI00
aa(lp1590
(I1072
I390
tp1591
aI00
aa(lp1592
(I1082
I465
tp1593
aI00
aatRp1594
sa(dp1595
g7
(lp1596
(F1472687402.6019609
g9
tp1597
a(F1472687404.2981069
(I895
I440
ttp1598
a(F1472687405.262764
(I921
I365
ttp1599
a(F1472687408.9490271
(I941
I240
ttp1600
a(F1472687409.4084549
(I961
I290
ttp1601
asg11
g1
((lp1602
(lp1603
(I960
I40
tp1604
aI01
aa(lp1605
(I981
I115
tp1606
aI01
aa(lp1607
(I977
I190
tp1608
aI01
aa(lp1609
(I941
I240
tp1610
aI00
aa(lp1611
(I961
I290
tp1612
aI00
aa(lp1613
(I921
I365
tp1614
aI00
aa(lp1615
(I895
I440
tp1616
aI00
aatRp1617
sa(dp1618
g7
(lp1619
(F1472687409.8018451
g9
tp1620
a(F1472687411.5193551
(I1042
I440
ttp1621
a(F1472687412.0875731
(I1001
I390
ttp1622
a(F1472687413.903512
(I974
I315
ttp1623
asg11
g1
((lp1624
(lp1625
(I960
I40
tp1626
aI01
aa(lp1627
(I991
I90
tp1628
aI01
aa(lp1629
(I947
I165
tp1630
aI01
aa(lp1631
(I950
I240
tp1632
aI01
aa(lp1633
(I974
I315
tp1634
aI00
aa(lp1635
(I1001
I390
tp1636
aI00
aa(lp1637
(I1042
I440
tp1638
aI00
aatRp1639
sa(dp1640
g7
(lp1641
(F1472687418.0741661
g9
tp1642
a(F1472687420.192605
(I893
I140
ttp1643
a(F1472687420.5822771
(I918
I215
ttp1644
a(F1472687421.020726
(I894
I290
ttp1645
a(F1472687421.424875
(I883
I365
ttp1646
a(F1472687421.914603
(I907
I440
ttp1647
asg11
g1
((lp1648
(lp1649
(I960
I40
tp1650
aI01
aa(lp1651
(I959
I90
tp1652
aI01
aa(lp1653
(I893
I140
tp1654
aI00
aa(lp1655
(I918
I215
tp1656
aI00
aa(lp1657
(I894
I290
tp1658
aI00
aa(lp1659
(I883
I365
tp1660
aI00
aa(lp1661
(I907
I440
tp1662
aI00
aatRp1663
sa(dp1664
g7
(lp1665
(F1472687422.4401
g9
tp1666
a(F1472687424.4566171
(I954
I490
ttp1667
a(F1472687427.719507
(I993
I415
ttp1668
a(F1472687428.1004579
(I998
I340
ttp1669
a(F1472687428.5908339
(I962
I265
ttp1670
a(F1472687430.3362131
(I970
I165
ttp1671
asg11
g1
((lp1672
(lp1673
(I960
I40
tp1674
aI01
aa(lp1675
(I994
I90
tp1676
aI01
aa(lp1677
(I970
I165
tp1678
aI00
aa(lp1679
(I962
I265
tp1680
aI00
aa(lp1681
(I998
I340
tp1682
aI00
aa(lp1683
(I993
I415
tp1684
aI00
aa(lp1685
(I954
I490
tp1686
aI00
aatRp1687
sa(dp1688
g7
(lp1689
(F1472687430.9401929
g9
tp1690
a(F1472687433.048907
(I953
I240
ttp1691
a(F1472687433.4820001
(I973
I290
ttp1692
a(F1472687433.9018159
(I956
I365
ttp1693
a(F1472687434.983191
(I978
I465
ttp1694
a(F1472687437.8846509
(I922
I165
ttp1695
asg11
g1
((lp1696
(lp1697
(I960
I40
tp1698
aI01
aa(lp1699
(I918
I90
tp1700
aI01
aa(lp1701
(I922
I165
tp1702
aI00
aa(lp1703
(I953
I240
tp1704
aI00
aa(lp1705
(I973
I290
tp1706
aI00
aa(lp1707
(I956
I365
tp1708
aI00
aa(lp1709
(I978
I465
tp1710
aI00
aatRp1711
sa(dp1712
g7
(lp1713
(F1472687438.394804
g9
tp1714
a(F1472687439.6531711
(I975
I215
ttp1715
a(F1472687440.335696
(I972
I290
ttp1716
a(F1472687440.774451
(I997
I365
ttp1717
a(F1472687441.1776199
(I991
I465
ttp1718
a(F1472687442.1953919
(I986
I565
ttp1719
asg11
g1
((lp1720
(lp1721
(I960
I40
tp1722
aI01
aa(lp1723
(I946
I115
tp1724
aI01
aa(lp1725
(I975
I215
tp1726
aI00
aa(lp1727
(I972
I290
tp1728
aI00
aa(lp1729
(I997
I365
tp1730
aI00
aa(lp1731
(I991
I465
tp1732
aI00
aa(lp1733
(I986
I565
tp1734
aI00
aatRp1735
sa(dp1736
g7
(lp1737
(F1472687443.290432
g9
tp1738
a(F1472687448.983839
(I926
I290
ttp1739
a(F1472687449.5450821
(I947
I340
ttp1740
a(F1472687453.614296
(I990
I240
ttp1741
asg11
g1
((lp1742
(lp1743
(I960
I40
tp1744
aI01
aa(lp1745
(I929
I90
tp1746
aI01
aa(lp1747
(I909
I140
tp1748
aI01
aa(lp1749
(I935
I190
tp1750
aI01
aa(lp1751
(I990
I240
tp1752
aI00
aa(lp1753
(I926
I290
tp1754
aI00
aa(lp1755
(I947
I340
tp1756
aI00
aatRp1757
sa(dp1758
g7
(lp1759
(F1472687456.1898689
g9
tp1760
asg11
g1
((lp1761
(lp1762
(I960
I40
tp1763
aI01
aa(lp1764
(I973
I90
tp1765
aI01
aa(lp1766
(I1024
I165
tp1767
aI01
aa(lp1768
(I1041
I240
tp1769
aI01
aa(lp1770
(I1072
I290
tp1771
aI01
aa(lp1772
(I1105
I365
tp1773
aI01
aa(lp1774
(I1093
I440
tp1775
aI01
aatRp1776
sa(dp1777
g7
(lp1778
(F1472687457.7413411
g9
tp1779
a(F1472687463.706176
(I905
I565
ttp1780
a(F1472687464.5444701
(I952
I415
ttp1781
a(F1472687465.359791
(I941
I490
ttp1782
a(F1472687466.674108
(I932
I315
ttp1783
a(F1472687467.2081239
(I937
I215
ttp1784
asg11
g1
((lp1785
(lp1786
(I960
I40
tp1787
aI01
aa(lp1788
(I949
I115
tp1789
aI01
aa(lp1790
(I937
I215
tp1791
aI00
aa(lp1792
(I932
I315
tp1793
aI00
aa(lp1794
(I952
I415
tp1795
aI00
aa(lp1796
(I941
I490
tp1797
aI00
aa(lp1798
(I905
I565
tp1799
aI00
aatRp1800
sa(dp1801
g7
(lp1802
(F1472687467.776799
g9
tp1803
a(F1472687469.5620749
(I1041
I240
ttp1804
a(F1472687470.0727389
(I1063
I315
ttp1805
a(F1472687470.5284989
(I1059
I390
ttp1806
a(F1472687470.988018
(I1098
I465
ttp1807
asg11
g1
((lp1808
(lp1809
(I960
I40
tp1810
aI01
aa(lp1811
(I1000
I115
tp1812
aI01
aa(lp1813
(I972
I190
tp1814
aI01
aa(lp1815
(I1041
I240
tp1816
aI00
aa(lp1817
(I1063
I315
tp1818
aI00
aa(lp1819
(I1059
I390
tp1820
aI00
aa(lp1821
(I1098
I465
tp1822
aI00
aatRp1823
sa(dp1824
g7
(lp1825
(F1472687472.3343401
g9
tp1826
asg11
g1
((lp1827
(lp1828
(I960
I40
tp1829
aI01
aa(lp1830
(I942
I90
tp1831
aI01
aa(lp1832
(I947
I165
tp1833
aI01
aa(lp1834
(I933
I240
tp1835
aI01
aa(lp1836
(I953
I315
tp1837
aI01
aa(lp1838
(I940
I415
tp1839
aI01
aa(lp1840
(I949
I490
tp1841
aI01
aatRp1842
sa(dp1843
g7
(lp1844
(F1472687473.4969461
g9
tp1845
a(F1472687474.956991
(I1038
I140
ttp1846
a(F1472687475.376168
(I1054
I215
ttp1847
a(F1472687475.7939539
(I1068
I290
ttp1848
a(F1472687476.219662
(I1077
I340
ttp1849
a(F1472687476.6802781
(I1083
I415
ttp1850
asg11
g1
((lp1851
(lp1852
(I960
I40
tp1853
aI01
aa(lp1854
(I966
I90
tp1855
aI01
aa(lp1856
(I1038
I140
tp1857
aI00
aa(lp1858
(I1054
I215
tp1859
aI00
aa(lp1860
(I1068
I290
tp1861
aI00
aa(lp1862
(I1077
I340
tp1863
aI00
aa(lp1864
(I1083
I415
tp1865
aI00
aatRp1866
sa(dp1867
g7
(lp1868
(F1472687477.3035109
g9
tp1869
a(F1472687479.468174
(I996
I415
ttp1870
a(F1472687480.144218
(I959
I340
ttp1871
a(F1472687484.9376881
(I942
I265
ttp1872
a(F1472687485.560272
(I903
I190
ttp1873
a(F1472687485.9193749
(I923
I140
ttp1874
a(F1472687486.3090551
(I893
I90
ttp1875
asg11
g1
((lp1876
(lp1877
(I960
I40
tp1878
aI01
aa(lp1879
(I893
I90
tp1880
aI00
aa(lp1881
(I923
I140
tp1882
aI00
aa(lp1883
(I903
I190
tp1884
aI00
aa(lp1885
(I942
I265
tp1886
aI00
aa(lp1887
(I959
I340
tp1888
aI00
aa(lp1889
(I996
I415
tp1890
aI00
aatRp1891
sa(dp1892
g7
(lp1893
(F1472687486.7774651
g9
tp1894
a(F1472687489.34075
(I1008
I465
ttp1895
a(F1472687489.9914999
(I986
I390
ttp1896
a(F1472687490.3632369
(I981
I315
ttp1897
a(F1472687490.8022549
(I968
I240
ttp1898
a(F1472687492.3998251
(I923
I190
ttp1899
a(F1472687492.7937231
(I929
I115
ttp1900
asg11
g1
((lp1901
(lp1902
(I960
I40
tp1903
aI01
aa(lp1904
(I929
I115
tp1905
aI00
aa(lp1906
(I923
I190
tp1907
aI00
aa(lp1908
(I968
I240
tp1909
aI00
aa(lp1910
(I981
I315
tp1911
aI00
aa(lp1912
(I986
I390
tp1913
aI00
aa(lp1914
(I1008
I465
tp1915
aI00
aatRp1916
sa(dp1917
g7
(lp1918
(F1472687493.186269
g9
tp1919
a(F1472687497.9113309
(I905
I440
ttp1920
a(F1472687498.3429301
(I891
I365
ttp1921
a(F1472687498.7666421
(I910
I240
ttp1922
a(F1472687499.49476
(I912
I290
ttp1923
a(F1472687500.642616
(I899
I165
ttp1924
a(F1472687501.4031241
(I911
I90
ttp1925
asg11
g1
((lp1926
(lp1927
(I960
I40
tp1928
aI01
aa(lp1929
(I911
I90
tp1930
aI00
aa(lp1931
(I899
I165
tp1932
aI00
aa(lp1933
(I910
I240
tp1934
aI00
aa(lp1935
(I912
I290
tp1936
aI00
aa(lp1937
(I891
I365
tp1938
aI00
aa(lp1939
(I905
I440
tp1940
aI00
aatRp1941
sa(dp1942
g7
(lp1943
(F1472687501.888911
g9
tp1944
a(F1472687504.4570439
(I939
I515
ttp1945
a(F1472687504.8654871
(I923
I440
ttp1946
a(F1472687505.666605
(I937
I390
ttp1947
a(F1472687506.1356211
(I948
I315
ttp1948
a(F1472687507.909646
(I974
I215
ttp1949
asg11
g1
((lp1950
(lp1951
(I960
I40
tp1952
aI01
aa(lp1953
(I954
I115
tp1954
aI01
aa(lp1955
(I974
I215
tp1956
aI00
aa(lp1957
(I948
I315
tp1958
aI00
aa(lp1959
(I937
I390
tp1960
aI00
aa(lp1961
(I923
I440
tp1962
aI00
aa(lp1963
(I939
I515
tp1964
aI00
aatRp1965
sa(dp1966
g7
(lp1967
(F1472687509.893317
g9
tp1968
a(F1472687511.8618751
(I1029
I365
ttp1969
a(F1472687512.8172741
(I1020
I290
ttp1970
a(F1472687515.21279
(I1012
I190
ttp1971
a(F1472687515.6407411
(I971
I240
ttp1972
asg11
g1
((lp1973
(lp1974
(I960
I40
tp1975
aI01
aa(lp1976
(I956
I90
tp1977
aI01
aa(lp1978
(I963
I140
tp1979
aI01
aa(lp1980
(I1012
I190
tp1981
aI00
aa(lp1982
(I971
I240
tp1983
aI00
aa(lp1984
(I1020
I290
tp1985
aI00
aa(lp1986
(I1029
I365
tp1987
aI00
aatRp1988
sa(dp1989
g7
(lp1990
(F1472687516.2512701
g9
tp1991
asg11
g1
((lp1992
(lp1993
(I960
I40
tp1994
aI01
aa(lp1995
(I993
I90
tp1996
aI01
aa(lp1997
(I1012
I140
tp1998
aI01
aa(lp1999
(I995
I190
tp2000
aI01
aa(lp2001
(I975
I265
tp2002
aI01
aa(lp2003
(I970
I340
tp2004
aI01
aa(lp2005
(I959
I390
tp2006
aI01
aatRp2007
sa(dp2008
g7
(lp2009
(F1472687518.5752809
g9
tp2010
asg11
g1
((lp2011
(lp2012
(I960
I40
tp2013
aI01
aa(lp2014
(I954
I90
tp2015
aI01
aa(lp2016
(I993
I165
tp2017
aI01
aa(lp2018
(I958
I240
tp2019
aI01
aa(lp2020
(I991
I290
tp2021
aI01
aa(lp2022
(I991
I340
tp2023
aI01
aa(lp2024
(I970
I415
tp2025
aI01
aatRp2026
sa(dp2027
g7
(lp2028
(F1472687520.23493
g9
tp2029
a(F1472687522.2968891
(I929
I115
ttp2030
a(F1472687522.7313941
(I924
I215
ttp2031
a(F1472687523.4347291
(I905
I315
ttp2032
a(F1472687524.1495271
(I919
I390
ttp2033
a(F1472687524.608161
(I976
I440
ttp2034
a(F1472687525.0151711
(I975
I490
ttp2035
asg11
g1
((lp2036
(lp2037
(I960
I40
tp2038
aI01
aa(lp2039
(I929
I115
tp2040
aI00
aa(lp2041
(I924
I215
tp2042
aI00
aa(lp2043
(I905
I315
tp2044
aI00
aa(lp2045
(I919
I390
tp2046
aI00
aa(lp2047
(I976
I440
tp2048
aI00
aa(lp2049
(I975
I490
tp2050
aI00
aatRp2051
sa(dp2052
g7
(lp2053
(F1472687525.572017
g9
tp2054
a(F1472687529.1930621
(I937
I115
ttp2055
a(F1472687529.560323
(I962
I215
ttp2056
a(F1472687529.9799659
(I991
I290
ttp2057
a(F1472687530.459887
(I1001
I365
ttp2058
a(F1472687530.8796151
(I973
I465
ttp2059
a(F1472687531.41206
(I988
I540
ttp2060
asg11
g1
((lp2061
(lp2062
(I960
I40
tp2063
aI01
aa(lp2064
(I937
I115
tp2065
aI00
aa(lp2066
(I962
I215
tp2067
aI00
aa(lp2068
(I991
I290
tp2069
aI00
aa(lp2070
(I1001
I365
tp2071
aI00
aa(lp2072
(I973
I465
tp2073
aI00
aa(lp2074
(I988
I540
tp2075
aI00
aatRp2076
sa(dp2077
g7
(lp2078
(F1472687531.934087
g9
tp2079
a(F1472687532.9812341
(I911
I290
ttp2080
a(F1472687533.3881819
(I911
I340
ttp2081
a(F1472687533.943665
(I946
I390
ttp2082
a(F1472687535.587857
(I980
I240
ttp2083
asg11
g1
((lp2084
(lp2085
(I960
I40
tp2086
aI01
aa(lp2087
(I974
I90
tp2088
aI01
aa(lp2089
(I964
I165
tp2090
aI01
aa(lp2091
(I980
I240
tp2092
aI00
aa(lp2093
(I911
I290
tp2094
aI00
aa(lp2095
(I911
I340
tp2096
aI00
aa(lp2097
(I946
I390
tp2098
aI00
aatRp2099
sa(dp2100
g7
(lp2101
(F1472687536.0631399
g9
tp2102
a(F1472687537.7790079
(I1023
I90
ttp2103
a(F1472687538.768822
(I990
I140
ttp2104
a(F1472687539.198343
(I967
I190
ttp2105
a(F1472687539.664963
(I897
I240
ttp2106
a(F1472687540.047549
(I919
I315
ttp2107
a(F1472687540.647197
(I916
I390
ttp2108
asg11
g1
((lp2109
(lp2110
(I960
I40
tp2111
aI01
aa(lp2112
(I1023
I90
tp2113
aI00
aa(lp2114
(I990
I140
tp2115
aI00
aa(lp2116
(I967
I190
tp2117
aI00
aa(lp2118
(I897
I240
tp2119
aI00
aa(lp2120
(I919
I315
tp2121
aI00
aa(lp2122
(I916
I390
tp2123
aI00
aatRp2124
sa(dp2125
g7
(lp2126
(F1472687541.085804
g9
tp2127
a(F1472687542.4350441
(I901
I140
ttp2128
a(F1472687542.8839779
(I876
I190
ttp2129
a(F1472687543.2820499
(I893
I265
ttp2130
a(F1472687543.8127551
(I846
I340
ttp2131
a(F1472687544.423265
(I792
I390
ttp2132
asg11
g1
((lp2133
(lp2134
(I960
I40
tp2135
aI01
aa(lp2136
(I973
I90
tp2137
aI01
aa(lp2138
(I901
I140
tp2139
aI00
aa(lp2140
(I876
I190
tp2141
aI00
aa(lp2142
(I893
I265
tp2143
aI00
aa(lp2144
(I846
I340
tp2145
aI00
aa(lp2146
(I792
I390
tp2147
aI00
aatRp2148
sa(dp2149
g7
(lp2150
(F1472687545.0799091
g9
tp2151
a(F1472687546.663974
(I863
I490
ttp2152
a(F1472687547.2234681
(I897
I415
ttp2153
a(F1472687549.6768939
(I925
I315
ttp2154
asg11
g1
((lp2155
(lp2156
(I960
I40
tp2157
aI01
aa(lp2158
(I922
I90
tp2159
aI01
aa(lp2160
(I942
I165
tp2161
aI01
aa(lp2162
(I949
I240
tp2163
aI01
aa(lp2164
(I925
I315
tp2165
aI00
aa(lp2166
(I897
I415
tp2167
aI00
aa(lp2168
(I863
I490
tp2169
aI00
aatRp2170
sa(dp2171
g7
(lp2172
(F1472687551.2964771
g9
tp2173
a(F1472687553.0120399
(I1017
I115
ttp2174
a(F1472687553.413945
(I1033
I190
ttp2175
a(F1472687553.831181
(I1086
I240
ttp2176
a(F1472687554.2307751
(I1063
I290
ttp2177
a(F1472687554.60813
(I1020
I365
ttp2178
a(F1472687555.0175631
(I1030
I440
ttp2179
asg11
g1
((lp2180
(lp2181
(I960
I40
tp2182
aI01
aa(lp2183
(I1017
I115
tp2184
aI00
aa(lp2185
(I1033
I190
tp2186
aI00
aa(lp2187
(I1086
I240
tp2188
aI00
aa(lp2189
(I1063
I290
tp2190
aI00
aa(lp2191
(I1020
I365
tp2192
aI00
aa(lp2193
(I1030
I440
tp2194
aI00
aatRp2195
sa(dp2196
g7
(lp2197
(F1472687555.631952
g9
tp2198
a(F1472687558.584729
(I954
I540
ttp2199
a(F1472687559.036092
(I961
I490
ttp2200
a(F1472687559.688813
(I941
I415
ttp2201
a(F1472687560.0854659
(I942
I315
ttp2202
a(F1472687560.552367
(I930
I215
ttp2203
asg11
g1
((lp2204
(lp2205
(I960
I40
tp2206
aI01
aa(lp2207
(I905
I115
tp2208
aI01
aa(lp2209
(I930
I215
tp2210
aI00
aa(lp2211
(I942
I315
tp2212
aI00
aa(lp2213
(I941
I415
tp2214
aI00
aa(lp2215
(I961
I490
tp2216
aI00
aa(lp2217
(I954
I540
tp2218
aI00
aatRp2219
sa(dp2220
g7
(lp2221
(F1472687561.333324
g9
tp2222
a(F1472687564.6778181
(I1025
I490
ttp2223
a(F1472687565.6166551
(I1004
I415
ttp2224
a(F1472687567.8160031
(I997
I315
ttp2225
a(F1472687568.2698059
(I1027
I240
ttp2226
asg11
g1
((lp2227
(lp2228
(I960
I40
tp2229
aI01
aa(lp2230
(I989
I115
tp2231
aI01
aa(lp2232
(I993
I190
tp2233
aI01
aa(lp2234
(I1027
I240
tp2235
aI00
aa(lp2236
(I997
I315
tp2237
aI00
aa(lp2238
(I1004
I415
tp2239
aI00
aa(lp2240
(I1025
I490
tp2241
aI00
aatRp2242
sa(dp2243
g7
(lp2244
(F1472687570.239243
g9
tp2245
a(F1472687571.6098559
(I1015
I90
ttp2246
a(F1472687572.0607979
(I1061
I165
ttp2247
a(F1472687572.4870341
(I1089
I265
ttp2248
a(F1472687573.615762
(I1104
I340
ttp2249
a(F1472687574.189256
(I1073
I415
ttp2250
a(F1472687574.6478419
(I1096
I490
ttp2251
asg11
g1
((lp2252
(lp2253
(I960
I40
tp2254
aI01
aa(lp2255
(I1015
I90
tp2256
aI00
aa(lp2257
(I1061
I165
tp2258
aI00
aa(lp2259
(I1089
I265
tp2260
aI00
aa(lp2261
(I1104
I340
tp2262
aI00
aa(lp2263
(I1073
I415
tp2264
aI00
aa(lp2265
(I1096
I490
tp2266
aI00
aatRp2267
sa(dp2268
g7
(lp2269
(F1472687575.3512919
g9
tp2270
a(F1472687580.0206981
(I964
I340
ttp2271
a(F1472687580.4544809
(I946
I290
ttp2272
a(F1472687580.86394
(I938
I240
ttp2273
a(F1472687581.295362
(I889
I190
ttp2274
a(F1472687581.6802709
(I912
I140
ttp2275
asg11
g1
((lp2276
(lp2277
(I960
I40
tp2278
aI01
aa(lp2279
(I979
I90
tp2280
aI01
aa(lp2281
(I912
I140
tp2282
aI00
aa(lp2283
(I889
I190
tp2284
aI00
aa(lp2285
(I938
I240
tp2286
aI00
aa(lp2287
(I946
I290
tp2288
aI00
aa(lp2289
(I964
I340
tp2290
aI00
aatRp2291
sa(dp2292
g7
(lp2293
(F1472687582.1313961
g9
tp2294
asg11
g1
((lp2295
(lp2296
(I960
I40
tp2297
aI01
aa(lp2298
(I988
I115
tp2299
aI01
aa(lp2300
(I998
I215
tp2301
aI01
aa(lp2302
(I977
I315
tp2303
aI01
aa(lp2304
(I990
I415
tp2305
aI01
aa(lp2306
(I1000
I515
tp2307
aI01
aa(lp2308
(I1005
I590
tp2309
aI01
aatRp2310
sa(dp2311
g7
(lp2312
(F1472687585.1005831
g9
tp2313
asg11
g1
((lp2314
(lp2315
(I960
I40
tp2316
aI01
aa(lp2317
(I973
I115
tp2318
aI01
aa(lp2319
(I1000
I215
tp2320
aI01
aa(lp2321
(I993
I315
tp2322
aI01
aa(lp2323
(I968
I390
tp2324
aI01
aa(lp2325
(I980
I465
tp2326
aI01
aa(lp2327
(I967
I540
tp2328
aI01
aatRp2329
saaa(lp2330
S'exp_30_10_3_space'
p2331
a(lp2332
(dp2333
g7
(lp2334
(F1472687592.283649
g9
tp2335
a(F1472687595.776243
(I996
I790
ttp2336
a(F1472687596.2223179
(I990
I715
ttp2337
a(F1472687597.321167
(I1008
I615
ttp2338
a(F1472687597.9363091
(I989
I515
ttp2339
a(F1472687602.3161831
(I1047
I440
ttp2340
a(F1472687603.4536331
(I1009
I365
ttp2341
a(F1472687603.8449509
(I1020
I265
ttp2342
a(F1472687605.0125711
(I1004
I190
ttp2343
a(F1472687606.589453
(I1000
I115
ttp2344
asg11
g1
((lp2345
(lp2346
(I960
I40
tp2347
aI01
aa(lp2348
(I1000
I115
tp2349
aI00
aa(lp2350
(I1004
I190
tp2351
aI00
aa(lp2352
(I1020
I265
tp2353
aI00
aa(lp2354
(I1009
I365
tp2355
aI00
aa(lp2356
(I1047
I440
tp2357
aI00
aa(lp2358
(I989
I515
tp2359
aI00
aa(lp2360
(I1008
I615
tp2361
aI00
aa(lp2362
(I990
I715
tp2363
aI00
aa(lp2364
(I996
I790
tp2365
aI00
aatRp2366
sa(dp2367
g7
(lp2368
(F1472687606.985106
g9
tp2369
a(F1472687612.440335
(I960
I815
ttp2370
a(F1472687613.494092
(I940
I715
ttp2371
a(F1472687614.568294
(I912
I565
ttp2372
a(F1472687615.100177
(I951
I640
ttp2373
a(F1472687615.754509
(I922
I465
ttp2374
a(F1472687616.2546279
(I911
I365
ttp2375
a(F1472687617.5054021
(I920
I265
ttp2376
a(F1472687617.943243
(I933
I165
ttp2377
asg11
g1
((lp2378
(lp2379
(I960
I40
tp2380
aI01
aa(lp2381
(I904
I90
tp2382
aI01
aa(lp2383
(I933
I165
tp2384
aI00
aa(lp2385
(I920
I265
tp2386
aI00
aa(lp2387
(I911
I365
tp2388
aI00
aa(lp2389
(I922
I465
tp2390
aI00
aa(lp2391
(I912
I565
tp2392
aI00
aa(lp2393
(I951
I640
tp2394
aI00
aa(lp2395
(I940
I715
tp2396
aI00
aa(lp2397
(I960
I815
tp2398
aI00
aatRp2399
sa(dp2400
g7
(lp2401
(F1472687618.3223691
g9
tp2402
asg11
g1
((lp2403
(lp2404
(I960
I40
tp2405
aI01
aa(lp2406
(I962
I115
tp2407
aI01
aa(lp2408
(I937
I215
tp2409
aI01
aa(lp2410
(I943
I315
tp2411
aI01
aa(lp2412
(I930
I415
tp2413
aI01
aa(lp2414
(I952
I515
tp2415
aI01
aa(lp2416
(I960
I615
tp2417
aI01
aa(lp2418
(I949
I690
tp2419
aI01
aa(lp2420
(I968
I765
tp2421
aI01
aa(lp2422
(I971
I865
tp2423
aI01
aatRp2424
sa(dp2425
g7
(lp2426
(F1472687622.086199
g9
tp2427
a(F1472687623.4345839
(I930
I115
ttp2428
a(F1472687623.866262
(I908
I215
ttp2429
a(F1472687624.2942581
(I941
I290
ttp2430
a(F1472687624.640923
(I885
I365
ttp2431
a(F1472687625.242888
(I891
I440
ttp2432
a(F1472687625.7241559
(I891
I490
ttp2433
a(F1472687626.1522081
(I871
I540
ttp2434
a(F1472687626.7288849
(I856
I615
ttp2435
a(F1472687627.137459
(I863
I715
ttp2436
asg11
g1
((lp2437
(lp2438
(I960
I40
tp2439
aI01
aa(lp2440
(I930
I115
tp2441
aI00
aa(lp2442
(I908
I215
tp2443
aI00
aa(lp2444
(I941
I290
tp2445
aI00
aa(lp2446
(I885
I365
tp2447
aI00
aa(lp2448
(I891
I440
tp2449
aI00
aa(lp2450
(I891
I490
tp2451
aI00
aa(lp2452
(I871
I540
tp2453
aI00
aa(lp2454
(I856
I615
tp2455
aI00
aa(lp2456
(I863
I715
tp2457
aI00
aatRp2458
sa(dp2459
g7
(lp2460
(F1472687627.6400969
g9
tp2461
a(F1472687628.8994551
(I1022
I640
ttp2462
a(F1472687629.2997539
(I1025
I590
ttp2463
a(F1472687629.7392509
(I1013
I515
ttp2464
a(F1472687630.2091579
(I1000
I440
ttp2465
a(F1472687630.6706581
(I963
I390
ttp2466
a(F1472687631.229007
(I922
I315
ttp2467
a(F1472687631.856864
(I927
I215
ttp2468
asg11
g1
((lp2469
(lp2470
(I960
I40
tp2471
aI01
aa(lp2472
(I951
I90
tp2473
aI01
aa(lp2474
(I945
I140
tp2475
aI01
aa(lp2476
(I927
I215
tp2477
aI00
aa(lp2478
(I922
I315
tp2479
aI00
aa(lp2480
(I963
I390
tp2481
aI00
aa(lp2482
(I1000
I440
tp2483
aI00
aa(lp2484
(I1013
I515
tp2485
aI00
aa(lp2486
(I1025
I590
tp2487
aI00
aa(lp2488
(I1022
I640
tp2489
aI00
aatRp2490
sa(dp2491
g7
(lp2492
(F1472687632.265975
g9
tp2493
asg11
g1
((lp2494
(lp2495
(I960
I40
tp2496
aI01
aa(lp2497
(I971
I115
tp2498
aI01
aa(lp2499
(I963
I215
tp2500
aI01
aa(lp2501
(I976
I290
tp2502
aI01
aa(lp2503
(I964
I340
tp2504
aI01
aa(lp2505
(I961
I390
tp2506
aI01
aa(lp2507
(I964
I465
tp2508
aI01
aa(lp2509
(I975
I540
tp2510
aI01
aa(lp2511
(I1007
I615
tp2512
aI01
aa(lp2513
(I985
I715
tp2514
aI01
aatRp2515
sa(dp2516
g7
(lp2517
(F1472687635.0572419
g9
tp2518
a(F1472687636.4484451
(I902
I665
ttp2519
a(F1472687636.8688691
(I945
I590
ttp2520
a(F1472687637.3277221
(I984
I540
ttp2521
a(F1472687637.7259159
(I958
I490
ttp2522
a(F1472687638.12451
(I984
I440
ttp2523
a(F1472687638.551295
(I1008
I365
ttp2524
a(F1472687638.9841189
(I1012
I290
ttp2525
asg11
g1
((lp2526
(lp2527
(I960
I40
tp2528
aI01
aa(lp2529
(I967
I115
tp2530
aI01
aa(lp2531
(I972
I215
tp2532
aI01
aa(lp2533
(I1012
I290
tp2534
aI00
aa(lp2535
(I1008
I365
tp2536
aI00
aa(lp2537
(I984
I440
tp2538
aI00
aa(lp2539
(I958
I490
tp2540
aI00
aa(lp2541
(I984
I540
tp2542
aI00
aa(lp2543
(I945
I590
tp2544
aI00
aa(lp2545
(I902
I665
tp2546
aI00
aatRp2547
sa(dp2548
g7
(lp2549
(F1472687639.5384669
g9
tp2550
a(F1472687646.704282
(I987
I615
ttp2551
a(F1472687647.1369171
(I969
I515
ttp2552
a(F1472687648.6729701
(I976
I440
ttp2553
a(F1472687649.062036
(I943
I390
ttp2554
a(F1472687649.4951169
(I952
I340
ttp2555
a(F1472687649.8872869
(I904
I290
ttp2556
a(F1472687650.2608089
(I951
I240
ttp2557
a(F1472687650.738569
(I948
I165
ttp2558
asg11
g1
((lp2559
(lp2560
(I960
I40
tp2561
aI01
aa(lp2562
(I918
I90
tp2563
aI01
aa(lp2564
(I948
I165
tp2565
aI00
aa(lp2566
(I951
I240
tp2567
aI00
aa(lp2568
(I904
I290
tp2569
aI00
aa(lp2570
(I952
I340
tp2571
aI00
aa(lp2572
(I943
I390
tp2573
aI00
aa(lp2574
(I976
I440
tp2575
aI00
aa(lp2576
(I969
I515
tp2577
aI00
aa(lp2578
(I987
I615
tp2579
aI00
aatRp2580
sa(dp2581
g7
(lp2582
(F1472687651.1523631
g9
tp2583
a(F1472687652.30987
(I864
I765
ttp2584
a(F1472687652.827564
(I861
I690
ttp2585
a(F1472687653.185884
(I867
I615
ttp2586
a(F1472687653.6243229
(I904
I540
ttp2587
a(F1472687654.1460421
(I956
I490
ttp2588
a(F1472687654.5809679
(I941
I415
ttp2589
a(F1472687654.95947
(I933
I315
ttp2590
a(F1472687655.3916931
(I966
I215
ttp2591
asg11
g1
((lp2592
(lp2593
(I960
I40
tp2594
aI01
aa(lp2595
(I965
I115
tp2596
aI01
aa(lp2597
(I966
I215
tp2598
aI00
aa(lp2599
(I933
I315
tp2600
aI00
aa(lp2601
(I941
I415
tp2602
aI00
aa(lp2603
(I956
I490
tp2604
aI00
aa(lp2605
(I904
I540
tp2606
aI00
aa(lp2607
(I867
I615
tp2608
aI00
aa(lp2609
(I861
I690
tp2610
aI00
aa(lp2611
(I864
I765
tp2612
aI00
aatRp2613
sa(dp2614
g7
(lp2615
(F1472687658.6849451
g9
tp2616
a(F1472687660.239861
(I994
I190
ttp2617
a(F1472687660.6570089
(I1005
I265
ttp2618
a(F1472687661.316572
(I977
I115
ttp2619
a(F1472687661.9835839
(I999
I340
ttp2620
a(F1472687662.344491
(I1011
I415
ttp2621
a(F1472687662.9773369
(I1013
I515
ttp2622
a(F1472687663.4065421
(I1014
I590
ttp2623
a(F1472687663.838357
(I966
I640
ttp2624
a(F1472687664.4178891
(I996
I690
ttp2625
asg11
g1
((lp2626
(lp2627
(I960
I40
tp2628
aI01
aa(lp2629
(I977
I115
tp2630
aI00
aa(lp2631
(I994
I190
tp2632
aI00
aa(lp2633
(I1005
I265
tp2634
aI00
aa(lp2635
(I999
I340
tp2636
aI00
aa(lp2637
(I1011
I415
tp2638
aI00
aa(lp2639
(I1013
I515
tp2640
aI00
aa(lp2641
(I1014
I590
tp2642
aI00
aa(lp2643
(I966
I640
tp2644
aI00
aa(lp2645
(I996
I690
tp2646
aI00
aatRp2647
sa(dp2648
g7
(lp2649
(F1472687664.9694519
g9
tp2650
asg11
g1
((lp2651
(lp2652
(I960
I40
tp2653
aI01
aa(lp2654
(I1006
I115
tp2655
aI01
aa(lp2656
(I1000
I215
tp2657
aI01
aa(lp2658
(I983
I315
tp2659
aI01
aa(lp2660
(I1026
I390
tp2661
aI01
aa(lp2662
(I991
I465
tp2663
aI01
aa(lp2664
(I982
I565
tp2665
aI01
aa(lp2666
(I994
I665
tp2667
aI01
aa(lp2668
(I989
I765
tp2669
aI01
aa(lp2670
(I982
I865
tp2671
aI01
aatRp2672
sa(dp2673
g7
(lp2674
(F1472687669.6673141
g9
tp2675
a(F1472687674.7048731
(I999
I240
ttp2676
a(F1472687675.2580371
(I985
I315
ttp2677
a(F1472687675.6556499
(I1004
I390
ttp2678
a(F1472687676.3767359
(I1021
I165
ttp2679
a(F1472687677.1243341
(I976
I440
ttp2680
a(F1472687677.4720731
(I978
I490
ttp2681
a(F1472687677.928709
(I981
I540
ttp2682
a(F1472687678.2947731
(I974
I615
ttp2683
asg11
g1
((lp2684
(lp2685
(I960
I40
tp2686
aI01
aa(lp2687
(I992
I90
tp2688
aI01
aa(lp2689
(I1021
I165
tp2690
aI00
aa(lp2691
(I999
I240
tp2692
aI00
aa(lp2693
(I985
I315
tp2694
aI00
aa(lp2695
(I1004
I390
tp2696
aI00
aa(lp2697
(I976
I440
tp2698
aI00
aa(lp2699
(I978
I490
tp2700
aI00
aa(lp2701
(I981
I540
tp2702
aI00
aa(lp2703
(I974
I615
tp2704
aI00
aatRp2705
sa(dp2706
g7
(lp2707
(F1472687678.7225671
g9
tp2708
a(F1472687680.022861
(I745
I590
ttp2709
a(F1472687680.425194
(I743
I515
ttp2710
a(F1472687680.8438959
(I786
I440
ttp2711
a(F1472687681.248873
(I831
I390
ttp2712
a(F1472687681.66677
(I826
I340
ttp2713
a(F1472687682.063267
(I834
I290
ttp2714
a(F1472687682.4962709
(I846
I240
ttp2715
a(F1472687682.933075
(I860
I165
ttp2716
a(F1472687683.4356351
(I894
I90
ttp2717
asg11
g1
((lp2718
(lp2719
(I960
I40
tp2720
aI01
aa(lp2721
(I894
I90
tp2722
aI00
aa(lp2723
(I860
I165
tp2724
aI00
aa(lp2725
(I846
I240
tp2726
aI00
aa(lp2727
(I834
I290
tp2728
aI00
aa(lp2729
(I826
I340
tp2730
aI00
aa(lp2731
(I831
I390
tp2732
aI00
aa(lp2733
(I786
I440
tp2734
aI00
aa(lp2735
(I743
I515
tp2736
aI00
aa(lp2737
(I745
I590
tp2738
aI00
aatRp2739
sa(dp2740
g7
(lp2741
(F1472687684.0000961
g9
tp2742
a(F1472687686.601156
(I960
I640
ttp2743
a(F1472687686.9850991
(I963
I565
ttp2744
a(F1472687687.457083
(I976
I465
ttp2745
a(F1472687691.2647879
(I976
I465
ttp2746
a(F1472687692.1517301
(I963
I565
ttp2747
a(F1472687692.8976221
(I960
I640
ttp2748
asg11
g1
((lp2749
(lp2750
(I960
I40
tp2751
aI01
aa(lp2752
(I978
I90
tp2753
aI01
aa(lp2754
(I960
I165
tp2755
aI01
aa(lp2756
(I942
I240
tp2757
aI01
aa(lp2758
(I992
I290
tp2759
aI01
aa(lp2760
(I1013
I340
tp2761
aI01
aa(lp2762
(I979
I390
tp2763
aI01
aa(lp2764
(I976
I465
tp2765
aI01
aa(lp2766
(I963
I565
tp2767
aI01
aa(lp2768
(I960
I640
tp2769
aI01
aatRp2770
sa(dp2771
g7
(lp2772
(F1472687694.201057
g9
tp2773
asg11
g1
((lp2774
(lp2775
(I960
I40
tp2776
aI01
aa(lp2777
(I980
I90
tp2778
aI01
aa(lp2779
(I970
I165
tp2780
aI01
aa(lp2781
(I969
I265
tp2782
aI01
aa(lp2783
(I983
I340
tp2784
aI01
aa(lp2785
(I967
I390
tp2786
aI01
aa(lp2787
(I968
I465
tp2788
aI01
aa(lp2789
(I984
I540
tp2790
aI01
aa(lp2791
(I981
I615
tp2792
aI01
aa(lp2793
(I984
I715
tp2794
aI01
aatRp2795
sa(dp2796
g7
(lp2797
(F1472687695.0863509
g9
tp2798
a(F1472687697.497386
(I853
I665
ttp2799
a(F1472687698.0385411
(I887
I765
ttp2800
a(F1472687698.81446
(I871
I590
ttp2801
a(F1472687699.2540729
(I886
I540
ttp2802
a(F1472687699.6598561
(I914
I465
ttp2803
a(F1472687700.264863
(I914
I390
ttp2804
a(F1472687700.628808
(I928
I315
ttp2805
a(F1472687701.1175101
(I936
I215
ttp2806
a(F1472687701.753139
(I910
I115
ttp2807
asg11
g1
((lp2808
(lp2809
(I960
I40
tp2810
aI01
aa(lp2811
(I910
I115
tp2812
aI00
aa(lp2813
(I936
I215
tp2814
aI00
aa(lp2815
(I928
I315
tp2816
aI00
aa(lp2817
(I914
I390
tp2818
aI00
aa(lp2819
(I914
I465
tp2820
aI00
aa(lp2821
(I886
I540
tp2822
aI00
aa(lp2823
(I871
I590
tp2824
aI00
aa(lp2825
(I853
I665
tp2826
aI00
aa(lp2827
(I887
I765
tp2828
aI00
aatRp2829
sa(dp2830
g7
(lp2831
(F1472687702.1827919
g9
tp2832
a(F1472687703.927686
(I998
I290
ttp2833
a(F1472687704.35906
(I1027
I365
ttp2834
a(F1472687704.9523511
(I978
I215
ttp2835
a(F1472687705.646148
(I1021
I440
ttp2836
a(F1472687706.0169871
(I1033
I515
ttp2837
a(F1472687706.4395299
(I1035
I590
ttp2838
a(F1472687706.831723
(I1052
I640
ttp2839
asg11
g1
((lp2840
(lp2841
(I960
I40
tp2842
aI01
aa(lp2843
(I972
I90
tp2844
aI01
aa(lp2845
(I985
I140
tp2846
aI01
aa(lp2847
(I978
I215
tp2848
aI00
aa(lp2849
(I998
I290
tp2850
aI00
aa(lp2851
(I1027
I365
tp2852
aI00
aa(lp2853
(I1021
I440
tp2854
aI00
aa(lp2855
(I1033
I515
tp2856
aI00
aa(lp2857
(I1035
I590
tp2858
aI00
aa(lp2859
(I1052
I640
tp2860
aI00
aatRp2861
sa(dp2862
g7
(lp2863
(F1472687707.273833
g9
tp2864
a(F1472687709.3906131
(I979
I265
ttp2865
a(F1472687709.755398
(I996
I365
ttp2866
a(F1472687710.136075
(I998
I440
ttp2867
a(F1472687710.557513
(I1049
I490
ttp2868
a(F1472687710.9409699
(I1071
I565
ttp2869
a(F1472687711.3614471
(I1077
I640
ttp2870
a(F1472687711.8796949
(I1119
I715
ttp2871
a(F1472687713.115072
(I996
I190
ttp2872
a(F1472687713.67694
(I996
I115
ttp2873
asg11
g1
((lp2874
(lp2875
(I960
I40
tp2876
aI01
aa(lp2877
(I996
I115
tp2878
aI00
aa(lp2879
(I996
I190
tp2880
aI00
aa(lp2881
(I979
I265
tp2882
aI00
aa(lp2883
(I996
I365
tp2884
aI00
aa(lp2885
(I998
I440
tp2886
aI00
aa(lp2887
(I1049
I490
tp2888
aI00
aa(lp2889
(I1071
I565
tp2890
aI00
aa(lp2891
(I1077
I640
tp2892
aI00
aa(lp2893
(I1119
I715
tp2894
aI00
aatRp2895
sa(dp2896
g7
(lp2897
(F1472687714.050262
g9
tp2898
a(F1472687718.270756
(I961
I365
ttp2899
a(F1472687718.7080541
(I953
I440
ttp2900
a(F1472687719.084384
(I938
I515
ttp2901
a(F1472687719.624264
(I933
I265
ttp2902
a(F1472687720.0233171
(I931
I165
ttp2903
a(F1472687720.8754051
(I923
I615
ttp2904
a(F1472687721.208569
(I922
I715
ttp2905
a(F1472687721.7296901
(I927
I815
ttp2906
asg11
g1
((lp2907
(lp2908
(I960
I40
tp2909
aI01
aa(lp2910
(I938
I90
tp2911
aI01
aa(lp2912
(I931
I165
tp2913
aI00
aa(lp2914
(I933
I265
tp2915
aI00
aa(lp2916
(I961
I365
tp2917
aI00
aa(lp2918
(I953
I440
tp2919
aI00
aa(lp2920
(I938
I515
tp2921
aI00
aa(lp2922
(I923
I615
tp2923
aI00
aa(lp2924
(I922
I715
tp2925
aI00
aa(lp2926
(I927
I815
tp2927
aI00
aatRp2928
sa(dp2929
g7
(lp2930
(F1472687722.398649
g9
tp2931
a(F1472687724.8462141
(I907
I465
ttp2932
a(F1472687725.193233
(I907
I465
ttp2933
a(F1472687726.1305709
(I965
I765
ttp2934
a(F1472687726.483674
(I951
I665
ttp2935
a(F1472687726.9028721
(I951
I590
ttp2936
a(F1472687727.3884931
(I932
I540
ttp2937
a(F1472687727.7279689
(I907
I465
ttp2938
a(F1472687728.160223
(I928
I365
ttp2939
a(F1472687729.259938
(I920
I265
ttp2940
a(F1472687729.8545811
(I933
I165
ttp2941
asg11
g1
((lp2942
(lp2943
(I960
I40
tp2944
aI01
aa(lp2945
(I906
I90
tp2946
aI01
aa(lp2947
(I933
I165
tp2948
aI00
aa(lp2949
(I920
I265
tp2950
aI00
aa(lp2951
(I928
I365
tp2952
aI00
aa(lp2953
(I907
I465
tp2954
aI00
aa(lp2955
(I932
I540
tp2956
aI00
aa(lp2957
(I951
I590
tp2958
aI00
aa(lp2959
(I951
I665
tp2960
aI00
aa(lp2961
(I965
I765
tp2962
aI00
aatRp2963
sa(dp2964
g7
(lp2965
(F1472687730.3134639
g9
tp2966
a(F1472687734.3840449
(I955
I390
ttp2967
a(F1472687734.862932
(I965
I440
ttp2968
a(F1472687735.2243769
(I925
I490
ttp2969
a(F1472687735.5619881
(I925
I540
ttp2970
a(F1472687736.911901
(I982
I315
ttp2971
a(F1472687738.024874
(I971
I240
ttp2972
a(F1472687738.65469
(I987
I190
ttp2973
asg11
g1
((lp2974
(lp2975
(I960
I40
tp2976
aI01
aa(lp2977
(I941
I90
tp2978
aI01
aa(lp2979
(I977
I140
tp2980
aI01
aa(lp2981
(I987
I190
tp2982
aI00
aa(lp2983
(I971
I240
tp2984
aI00
aa(lp2985
(I982
I315
tp2986
aI00
aa(lp2987
(I955
I390
tp2988
aI00
aa(lp2989
(I965
I440
tp2990
aI00
aa(lp2991
(I925
I490
tp2992
aI00
aa(lp2993
(I925
I540
tp2994
aI00
aatRp2995
sa(dp2996
g7
(lp2997
(F1472687739.0486219
g9
tp2998
a(F1472687740.1554599
(I944
I765
ttp2999
a(F1472687740.542228
(I951
I690
ttp3000
a(F1472687741.0213659
(I974
I615
ttp3001
a(F1472687741.7440481
(I991
I515
ttp3002
a(F1472687743.0128689
(I994
I415
ttp3003
a(F1472687743.4327731
(I1016
I340
ttp3004
a(F1472687743.8203471
(I1012
I265
ttp3005
a(F1472687744.31845
(I999
I165
ttp3006
asg11
g1
((lp3007
(lp3008
(I960
I40
tp3009
aI01
aa(lp3010
(I977
I90
tp3011
aI01
aa(lp3012
(I999
I165
tp3013
aI00
aa(lp3014
(I1012
I265
tp3015
aI00
aa(lp3016
(I1016
I340
tp3017
aI00
aa(lp3018
(I994
I415
tp3019
aI00
aa(lp3020
(I991
I515
tp3021
aI00
aa(lp3022
(I974
I615
tp3023
aI00
aa(lp3024
(I951
I690
tp3025
aI00
aa(lp3026
(I944
I765
tp3027
aI00
aatRp3028
sa(dp3029
g7
(lp3030
(F1472687744.7950871
g9
tp3031
a(F1472687746.2151389
(I952
I390
ttp3032
a(F1472687747.2800889
(I941
I315
ttp3033
a(F1472687747.901897
(I943
I215
ttp3034
a(F1472687748.7991991
(I972
I465
ttp3035
a(F1472687749.184881
(I984
I565
ttp3036
a(F1472687749.5994051
(I1012
I640
ttp3037
a(F1472687750.0222039
(I1062
I690
ttp3038
a(F1472687750.4118299
(I1073
I740
ttp3039
asg11
g1
((lp3040
(lp3041
(I960
I40
tp3042
aI01
aa(lp3043
(I946
I115
tp3044
aI01
aa(lp3045
(I943
I215
tp3046
aI00
aa(lp3047
(I941
I315
tp3048
aI00
aa(lp3049
(I952
I390
tp3050
aI00
aa(lp3051
(I972
I465
tp3052
aI00
aa(lp3053
(I984
I565
tp3054
aI00
aa(lp3055
(I1012
I640
tp3056
aI00
aa(lp3057
(I1062
I690
tp3058
aI00
aa(lp3059
(I1073
I740
tp3060
aI00
aatRp3061
sa(dp3062
g7
(lp3063
(F1472687750.91048
g9
tp3064
a(F1472687752.32074
(I988
I815
ttp3065
a(F1472687752.71384
(I983
I715
ttp3066
a(F1472687753.592716
(I978
I615
ttp3067
a(F1472687754.134634
(I971
I540
ttp3068
a(F1472687754.61394
(I925
I465
ttp3069
a(F1472687755.2380321
(I902
I390
ttp3070
a(F1472687755.661494
(I937
I315
ttp3071
a(F1472687756.0535779
(I940
I215
ttp3072
a(F1472687758.005219
(I921
I115
ttp3073
asg11
g1
((lp3074
(lp3075
(I960
I40
tp3076
aI01
aa(lp3077
(I921
I115
tp3078
aI00
aa(lp3079
(I940
I215
tp3080
aI00
aa(lp3081
(I937
I315
tp3082
aI00
aa(lp3083
(I902
I390
tp3084
aI00
aa(lp3085
(I925
I465
tp3086
aI00
aa(lp3087
(I971
I540
tp3088
aI00
aa(lp3089
(I978
I615
tp3090
aI00
aa(lp3091
(I983
I715
tp3092
aI00
aa(lp3093
(I988
I815
tp3094
aI00
aatRp3095
sa(dp3096
g7
(lp3097
(F1472687758.3964651
g9
tp3098
a(F1472687759.8685491
(I947
I240
ttp3099
a(F1472687761.104624
(I926
I165
ttp3100
a(F1472687761.7559831
(I996
I315
ttp3101
a(F1472687762.496865
(I972
I415
ttp3102
a(F1472687763.008106
(I979
I515
ttp3103
a(F1472687763.453501
(I972
I590
ttp3104
a(F1472687763.860652
(I981
I665
ttp3105
a(F1472687764.5541589
(I981
I740
ttp3106
asg11
g1
((lp3107
(lp3108
(I960
I40
tp3109
aI01
aa(lp3110
(I933
I90
tp3111
aI01
aa(lp3112
(I926
I165
tp3113
aI00
aa(lp3114
(I947
I240
tp3115
aI00
aa(lp3116
(I996
I315
tp3117
aI00
aa(lp3118
(I972
I415
tp3119
aI00
aa(lp3120
(I979
I515
tp3121
aI00
aa(lp3122
(I972
I590
tp3123
aI00
aa(lp3124
(I981
I665
tp3125
aI00
aa(lp3126
(I981
I740
tp3127
aI00
aatRp3128
sa(dp3129
g7
(lp3130
(F1472687766.396441
g9
tp3131
a(F1472687767.5231841
(I1019
I765
ttp3132
a(F1472687767.9346011
(I1014
I690
ttp3133
a(F1472687768.428478
(I1036
I615
ttp3134
a(F1472687768.8720081
(I1034
I515
ttp3135
a(F1472687769.3737459
(I1011
I415
ttp3136
a(F1472687769.984329
(I963
I340
ttp3137
a(F1472687770.351686
(I959
I265
ttp3138
a(F1472687771.5663581
(I917
I190
ttp3139
a(F1472687772.143008
(I941
I115
ttp3140
asg11
g1
((lp3141
(lp3142
(I960
I40
tp3143
aI01
aa(lp3144
(I941
I115
tp3145
aI00
aa(lp3146
(I917
I190
tp3147
aI00
aa(lp3148
(I959
I265
tp3149
aI00
aa(lp3150
(I963
I340
tp3151
aI00
aa(lp3152
(I1011
I415
tp3153
aI00
aa(lp3154
(I1034
I515
tp3155
aI00
aa(lp3156
(I1036
I615
tp3157
aI00
aa(lp3158
(I1014
I690
tp3159
aI00
aa(lp3160
(I1019
I765
tp3161
aI00
aatRp3162
sa(dp3163
g7
(lp3164
(F1472687772.6228459
g9
tp3165
a(F1472687774.711684
(I987
I690
ttp3166
a(F1472687775.121187
(I1011
I640
ttp3167
a(F1472687775.5045099
(I942
I590
ttp3168
a(F1472687775.913192
(I978
I540
ttp3169
a(F1472687776.321213
(I994
I465
ttp3170
a(F1472687776.763046
(I992
I390
ttp3171
a(F1472687777.2990301
(I1010
I315
ttp3172
a(F1472687778.5583749
(I979
I215
ttp3173
asg11
g1
((lp3174
(lp3175
(I960
I40
tp3176
aI01
aa(lp3177
(I976
I115
tp3178
aI01
aa(lp3179
(I979
I215
tp3180
aI00
aa(lp3181
(I1010
I315
tp3182
aI00
aa(lp3183
(I992
I390
tp3184
aI00
aa(lp3185
(I994
I465
tp3186
aI00
aa(lp3187
(I978
I540
tp3188
aI00
aa(lp3189
(I942
I590
tp3190
aI00
aa(lp3191
(I1011
I640
tp3192
aI00
aa(lp3193
(I987
I690
tp3194
aI00
aatRp3195
sa(dp3196
g7
(lp3197
(F1472687779.2922909
g9
tp3198
a(F1472687782.7001841
(I919
I215
ttp3199
a(F1472687783.2902541
(I911
I315
ttp3200
a(F1472687783.916157
(I922
I390
ttp3201
a(F1472687784.247669
(I915
I440
ttp3202
a(F1472687784.717392
(I879
I490
ttp3203
a(F1472687785.0881691
(I899
I540
ttp3204
a(F1472687785.5064061
(I895
I590
ttp3205
a(F1472687785.9247849
(I885
I640
ttp3206
asg11
g1
((lp3207
(lp3208
(I960
I40
tp3209
aI01
aa(lp3210
(I939
I115
tp3211
aI01
aa(lp3212
(I919
I215
tp3213
aI00
aa(lp3214
(I911
I315
tp3215
aI00
aa(lp3216
(I922
I390
tp3217
aI00
aa(lp3218
(I915
I440
tp3219
aI00
aa(lp3220
(I879
I490
tp3221
aI00
aa(lp3222
(I899
I540
tp3223
aI00
aa(lp3224
(I895
I590
tp3225
aI00
aa(lp3226
(I885
I640
tp3227
aI00
aatRp3228
sa(dp3229
g7
(lp3230
(F1472687787.816113
g9
tp3231
a(F1472687793.1017771
(I923
I715
ttp3232
a(F1472687793.5268819
(I913
I640
ttp3233
a(F1472687793.953397
(I938
I590
ttp3234
a(F1472687794.3352411
(I926
I515
ttp3235
a(F1472687795.244457
(I929
I415
ttp3236
a(F1472687795.6319289
(I951
I340
ttp3237
a(F1472687796.0604761
(I962
I290
ttp3238
a(F1472687796.4226489
(I954
I215
ttp3239
asg11
g1
((lp3240
(lp3241
(I960
I40
tp3242
aI01
aa(lp3243
(I956
I115
tp3244
aI01
aa(lp3245
(I954
I215
tp3246
aI00
aa(lp3247
(I962
I290
tp3248
aI00
aa(lp3249
(I951
I340
tp3250
aI00
aa(lp3251
(I929
I415
tp3252
aI00
aa(lp3253
(I926
I515
tp3254
aI00
aa(lp3255
(I938
I590
tp3256
aI00
aa(lp3257
(I913
I640
tp3258
aI00
aa(lp3259
(I923
I715
tp3260
aI00
aatRp3261
sa(dp3262
g7
(lp3263
(F1472687796.980011
g9
tp3264
asg11
g1
((lp3265
(lp3266
(I960
I40
tp3267
aI01
aa(lp3268
(I971
I115
tp3269
aI01
aa(lp3270
(I972
I215
tp3271
aI01
aa(lp3272
(I977
I290
tp3273
aI01
aa(lp3274
(I988
I340
tp3275
aI01
aa(lp3276
(I966
I415
tp3277
aI01
aa(lp3278
(I960
I490
tp3279
aI01
aa(lp3280
(I956
I565
tp3281
aI01
aa(lp3282
(I970
I640
tp3283
aI01
aa(lp3284
(I975
I715
tp3285
aI01
aatRp3286
saaatRp3287
.