ccollections
OrderedDict
p1
((lp2
(lp3
S'exp_20_4_3_space'
p4
a(lp5
(dp6
S'seq'
p7
(lp8
(F1472835103.93331
(I0
I0
tp9
tp10
a(F1472835107.317893
(I998
I190
ttp11
a(F1472835107.818557
(I998
I190
ttp12
a(F1472835134.139806
(I955
I140
ttp13
a(F1472835135.032757
(I955
I140
ttp14
a(F1472835136.76912
(I998
I190
ttp15
a(F1472835137.7088339
(I998
I190
ttp16
a(F1472835138.90064
(I968
I90
ttp17
a(F1472835139.568881
(I968
I90
ttp18
a(F1472835140.231127
(I960
I40
ttp19
a(F1472835140.6917939
(I960
I40
ttp20
asS'choices'
p21
g1
((lp22
(lp23
(I960
I40
tp24
aI01
aa(lp25
(I968
I90
tp26
aI01
aa(lp27
(I955
I140
tp28
aI01
aa(lp29
(I998
I190
tp30
aI01
aatRp31
sa(dp32
g7
(lp33
(F1472835150.752708
g9
tp34
a(F1472835192.0585389
(I1036
I290
ttp35
a(F1472835201.7963259
(I1036
I290
ttp36
a(F1472835203.9534221
(I1036
I290
ttp37
asg21
g1
((lp38
(lp39
(I960
I40
tp40
aI01
aa(lp41
(I992
I115
tp42
aI01
aa(lp43
(I1008
I215
tp44
aI01
aa(lp45
(I1036
I290
tp46
aI00
aatRp47
sa(dp48
g7
(lp49
(F1472835226.947891
g9
tp50
asg21
g1
((lp51
(lp52
(I960
I40
tp53
aI01
aa(lp54
(I984
I90
tp55
aI01
aa(lp56
(I985
I165
tp57
aI01
aa(lp58
(I982
I265
tp59
aI01
aatRp60
sa(dp61
g7
(lp62
(F1472835231.6624839
g9
tp63
a(F1472835234.3465271
(I1017
I215
ttp64
a(F1472835235.3755431
(I1031
I315
ttp65
asg21
g1
((lp66
(lp67
(I960
I40
tp68
aI01
aa(lp69
(I978
I115
tp70
aI01
aa(lp71
(I1017
I215
tp72
aI00
aa(lp73
(I1031
I315
tp74
aI00
aatRp75
sa(dp76
g7
(lp77
(F1472835237.478358
g9
tp78
asg21
g1
((lp79
(lp80
(I960
I40
tp81
aI01
aa(lp82
(I976
I90
tp83
aI01
aa(lp84
(I1005
I165
tp85
aI01
aa(lp86
(I980
I240
tp87
aI01
aatRp88
sa(dp89
g7
(lp90
(F1472835241.0655911
g9
tp91
a(F1472835252.501112
(I974
I265
ttp92
a(F1472835253.5292881
(I1005
I115
ttp93
a(F1472835255.8107591
(I1028
I190
ttp94
asg21
g1
((lp95
(lp96
(I960
I40
tp97
aI01
aa(lp98
(I1005
I115
tp99
aI00
aa(lp100
(I1028
I190
tp101
aI00
aa(lp102
(I974
I265
tp103
aI00
aatRp104
sa(dp105
g7
(lp106
(F1472835259.3907189
g9
tp107
a(F1472835268.2133751
(I946
I265
ttp108
asg21
g1
((lp109
(lp110
(I960
I40
tp111
aI01
aa(lp112
(I949
I90
tp113
aI01
aa(lp114
(I992
I165
tp115
aI01
aa(lp116
(I946
I265
tp117
aI00
aatRp118
sa(dp119
g7
(lp120
(F1472835270.8088651
g9
tp121
a(F1472835274.588001
(I1022
I90
ttp122
a(F1472835279.48929
(I1041
I165
ttp123
a(F1472835283.312376
(I1041
I165
ttp124
a(F1472835286.220623
(I1041
I165
ttp125
a(F1472835286.9591031
(I1029
I265
ttp126
asg21
g1
((lp127
(lp128
(I960
I40
tp129
aI01
aa(lp130
(I1022
I90
tp131
aI00
aa(lp132
(I1041
I165
tp133
aI00
aa(lp134
(I1029
I265
tp135
aI00
aatRp136
sa(dp137
g7
(lp138
(F1472835291.3264661
g9
tp139
asg21
g1
((lp140
(lp141
(I960
I40
tp142
aI01
aa(lp143
(I933
I90
tp144
aI01
aa(lp145
(I932
I165
tp146
aI01
aa(lp147
(I925
I265
tp148
aI01
aatRp149
sa(dp150
g7
(lp151
(F1472835298.293601
g9
tp152
asg21
g1
((lp153
(lp154
(I960
I40
tp155
aI01
aa(lp156
(I958
I90
tp157
aI01
aa(lp158
(I958
I165
tp159
aI01
aa(lp160
(I948
I265
tp161
aI01
aatRp162
sa(dp163
g7
(lp164
(F1472835301.608819
g9
tp165
a(F1472835303.6144631
(I1054
I90
ttp166
a(F1472835304.0526669
(I1078
I165
ttp167
a(F1472835304.5322909
(I1105
I240
ttp168
asg21
g1
((lp169
(lp170
(I960
I40
tp171
aI01
aa(lp172
(I1054
I90
tp173
aI00
aa(lp174
(I1078
I165
tp175
aI00
aa(lp176
(I1105
I240
tp177
aI00
aatRp178
sa(dp179
g7
(lp180
(F1472835305.3520739
g9
tp181
a(F1472835308.3191421
(I1052
I90
ttp182
a(F1472835309.540493
(I1031
I140
ttp183
a(F1472835310.030827
(I1032
I190
ttp184
asg21
g1
((lp185
(lp186
(I960
I40
tp187
aI01
aa(lp188
(I1052
I90
tp189
aI00
aa(lp190
(I1031
I140
tp191
aI00
aa(lp192
(I1032
I190
tp193
aI00
aatRp194
sa(dp195
g7
(lp196
(F1472835310.848882
g9
tp197
a(F1472835313.180388
(I1041
I190
ttp198
a(F1472835313.717917
(I1073
I240
ttp199
a(F1472835326.409982
(I986
I115
ttp200
a(F1472835327.7856519
(I986
I115
ttp201
asg21
g1
((lp202
(lp203
(I960
I40
tp204
aI01
aa(lp205
(I986
I115
tp206
aI01
aa(lp207
(I1041
I190
tp208
aI00
aa(lp209
(I1073
I240
tp210
aI00
aatRp211
sa(dp212
g7
(lp213
(F1472835334.0246601
g9
tp214
a(F1472835335.4740231
(I900
I290
ttp215
asg21
g1
((lp216
(lp217
(I960
I40
tp218
aI01
aa(lp219
(I951
I115
tp220
aI01
aa(lp221
(I972
I215
tp222
aI01
aa(lp223
(I900
I290
tp224
aI00
aatRp225
sa(dp226
g7
(lp227
(F1472835340.4371221
g9
tp228
asg21
g1
((lp229
(lp230
(I960
I40
tp231
aI01
aa(lp232
(I974
I90
tp233
aI01
aa(lp234
(I999
I140
tp235
aI01
aa(lp236
(I1029
I190
tp237
aI01
aatRp238
sa(dp239
g7
(lp240
(F1472835342.7069111
g9
tp241
a(F1472835346.140151
(I986
I315
ttp242
asg21
g1
((lp243
(lp244
(I960
I40
tp245
aI01
aa(lp246
(I962
I115
tp247
aI01
aa(lp248
(I962
I215
tp249
aI01
aa(lp250
(I986
I315
tp251
aI00
aatRp252
sa(dp253
g7
(lp254
(F1472835347.0031281
g9
tp255
asg21
g1
((lp256
(lp257
(I960
I40
tp258
aI01
aa(lp259
(I1006
I90
tp260
aI01
aa(lp261
(I986
I165
tp262
aI01
aa(lp263
(I984
I265
tp264
aI01
aatRp265
sa(dp266
g7
(lp267
(F1472835357.6874321
g9
tp268
a(F1472835364.7499001
(I885
I90
ttp269
asg21
g1
((lp270
(lp271
(I960
I40
tp272
aI01
aa(lp273
(I885
I90
tp274
aI00
aa(lp275
(I952
I140
tp276
aI01
aa(lp277
(I917
I190
tp278
aI01
aatRp279
sa(dp280
g7
(lp281
(F1472835366.0140729
g9
tp282
asg21
g1
((lp283
(lp284
(I960
I40
tp285
aI01
aa(lp286
(I963
I115
tp287
aI01
aa(lp288
(I962
I215
tp289
aI01
aa(lp290
(I975
I290
tp291
aI01
aatRp292
sa(dp293
g7
(lp294
(F1472835367.6705179
g9
tp295
asg21
g1
((lp296
(lp297
(I960
I40
tp298
aI01
aa(lp299
(I938
I90
tp300
aI01
aa(lp301
(I967
I140
tp302
aI01
aa(lp303
(I955
I215
tp304
aI01
aatRp305
saaa(lp306
S'exp_50_5_3_space'
p307
a(lp308
(dp309
g7
(lp310
(F1472835421.2936721
g9
tp311
a(F1472835433.155988
(I901
I115
ttp312
a(F1472835434.3034289
(I893
I215
ttp313
a(F1472835434.6020651
(I903
I315
ttp314
a(F1472835435.164835
(I891
I415
ttp315
asg21
g1
((lp316
(lp317
(I960
I40
tp318
aI01
aa(lp319
(I901
I115
tp320
aI00
aa(lp321
(I893
I215
tp322
aI00
aa(lp323
(I903
I315
tp324
aI00
aa(lp325
(I891
I415
tp326
aI00
aatRp327
sa(dp328
g7
(lp329
(F1472835436.3645849
g9
tp330
a(F1472835437.8761301
(I1058
I340
ttp331
a(F1472835439.0286379
(I986
I215
ttp332
a(F1472835439.468601
(I984
I290
ttp333
asg21
g1
((lp334
(lp335
(I960
I40
tp336
aI01
aa(lp337
(I954
I115
tp338
aI01
aa(lp339
(I986
I215
tp340
aI00
aa(lp341
(I984
I290
tp342
aI00
aa(lp343
(I1058
I340
tp344
aI00
aatRp345
sa(dp346
g7
(lp347
(F1472835440.610666
g9
tp348
a(F1472835442.203475
(I987
I290
ttp349
a(F1472835445.547523
(I987
I290
ttp350
asg21
g1
((lp351
(lp352
(I960
I40
tp353
aI01
aa(lp354
(I928
I90
tp355
aI01
aa(lp356
(I933
I140
tp357
aI01
aa(lp358
(I951
I215
tp359
aI01
aa(lp360
(I987
I290
tp361
aI01
aatRp362
sa(dp363
g7
(lp364
(F1472835447.1013081
g9
tp365
asg21
g1
((lp366
(lp367
(I960
I40
tp368
aI01
aa(lp369
(I996
I115
tp370
aI01
aa(lp371
(I1010
I190
tp372
aI01
aa(lp373
(I1009
I240
tp374
aI01
aa(lp375
(I1024
I315
tp376
aI01
aatRp377
sa(dp378
g7
(lp379
(F1472835459.6896601
g9
tp380
a(F1472835463.8201399
(I907
I115
ttp381
a(F1472835465.6520691
(I884
I190
ttp382
a(F1472835466.1553969
(I957
I240
ttp383
a(F1472835467.200434
(I984
I290
ttp384
asg21
g1
((lp385
(lp386
(I960
I40
tp387
aI01
aa(lp388
(I907
I115
tp389
aI00
aa(lp390
(I884
I190
tp391
aI00
aa(lp392
(I957
I240
tp393
aI00
aa(lp394
(I984
I290
tp395
aI00
aatRp396
sa(dp397
g7
(lp398
(F1472835468.0670221
g9
tp399
a(F1472835470.3491931
(I1013
I115
ttp400
a(F1472835470.780581
(I1017
I215
ttp401
a(F1472835471.3032291
(I1004
I315
ttp402
a(F1472835471.7362039
(I979
I415
ttp403
asg21
g1
((lp404
(lp405
(I960
I40
tp406
aI01
aa(lp407
(I1013
I115
tp408
aI00
aa(lp409
(I1017
I215
tp410
aI00
aa(lp411
(I1004
I315
tp412
aI00
aa(lp413
(I979
I415
tp414
aI00
aatRp415
sa(dp416
g7
(lp417
(F1472835472.5142109
g9
tp418
a(F1472835477.476589
(I896
I315
ttp419
asg21
g1
((lp420
(lp421
(I960
I40
tp422
aI01
aa(lp423
(I956
I115
tp424
aI01
aa(lp425
(I1001
I190
tp426
aI01
aa(lp427
(I948
I240
tp428
aI01
aa(lp429
(I896
I315
tp430
aI00
aatRp431
sa(dp432
g7
(lp433
(F1472835478.2150791
g9
tp434
a(F1472835481.405242
(I944
I215
ttp435
a(F1472835482.840497
(I902
I290
ttp436
a(F1472835483.4839139
(I900
I365
ttp437
asg21
g1
((lp438
(lp439
(I960
I40
tp440
aI01
aa(lp441
(I974
I115
tp442
aI01
aa(lp443
(I944
I215
tp444
aI00
aa(lp445
(I902
I290
tp446
aI00
aa(lp447
(I900
I365
tp448
aI00
aatRp449
sa(dp450
g7
(lp451
(F1472835484.201488
g9
tp452
asg21
g1
((lp453
(lp454
(I960
I40
tp455
aI01
aa(lp456
(I992
I115
tp457
aI01
aa(lp458
(I990
I215
tp459
aI01
aa(lp460
(I985
I290
tp461
aI01
aa(lp462
(I986
I365
tp463
aI01
aatRp464
sa(dp465
g7
(lp466
(F1472835486.1923921
g9
tp467
asg21
g1
((lp468
(lp469
(I960
I40
tp470
aI01
aa(lp471
(I911
I115
tp472
aI01
aa(lp473
(I920
I190
tp474
aI01
aa(lp475
(I958
I240
tp476
aI01
aa(lp477
(I958
I315
tp478
aI01
aatRp479
sa(dp480
g7
(lp481
(F1472835496.4579811
g9
tp482
a(F1472835508.1659141
(I1019
I165
ttp483
a(F1472835508.8920209
(I1028
I265
ttp484
a(F1472835509.4945581
(I1039
I365
ttp485
asg21
g1
((lp486
(lp487
(I960
I40
tp488
aI01
aa(lp489
(I1017
I90
tp490
aI01
aa(lp491
(I1019
I165
tp492
aI00
aa(lp493
(I1028
I265
tp494
aI00
aa(lp495
(I1039
I365
tp496
aI00
aatRp497
sa(dp498
g7
(lp499
(F1472835510.3657751
g9
tp500
a(F1472835512.341763
(I1015
I265
ttp501
a(F1472835512.7561271
(I1015
I265
ttp502
a(F1472835513.3897231
(I1015
I265
ttp503
a(F1472835514.181843
(I1023
I340
ttp504
asg21
g1
((lp505
(lp506
(I960
I40
tp507
aI01
aa(lp508
(I982
I90
tp509
aI01
aa(lp510
(I979
I165
tp511
aI01
aa(lp512
(I1015
I265
tp513
aI00
aa(lp514
(I1023
I340
tp515
aI00
aatRp516
sa(dp517
g7
(lp518
(F1472835514.92783
g9
tp519
asg21
g1
((lp520
(lp521
(I960
I40
tp522
aI01
aa(lp523
(I993
I115
tp524
aI01
aa(lp525
(I983
I215
tp526
aI01
aa(lp527
(I972
I315
tp528
aI01
aa(lp529
(I1002
I390
tp530
aI01
aatRp531
sa(dp532
g7
(lp533
(F1472835521.7965231
g9
tp534
asg21
g1
((lp535
(lp536
(I960
I40
tp537
aI01
aa(lp538
(I952
I90
tp539
aI01
aa(lp540
(I938
I165
tp541
aI01
aa(lp542
(I917
I240
tp543
aI01
aa(lp544
(I909
I315
tp545
aI01
aatRp546
sa(dp547
g7
(lp548
(F1472835527.481672
g9
tp549
asg21
g1
((lp550
(lp551
(I960
I40
tp552
aI01
aa(lp553
(I916
I115
tp554
aI01
aa(lp555
(I957
I190
tp556
aI01
aa(lp557
(I937
I240
tp558
aI01
aa(lp559
(I925
I290
tp560
aI01
aatRp561
sa(dp562
g7
(lp563
(F1472835534.6973729
g9
tp564
asg21
g1
((lp565
(lp566
(I960
I40
tp567
aI01
aa(lp568
(I966
I115
tp569
aI01
aa(lp570
(I972
I190
tp571
aI01
aa(lp572
(I995
I265
tp573
aI01
aa(lp574
(I1003
I365
tp575
aI01
aatRp576
sa(dp577
g7
(lp578
(F1472835537.763598
g9
tp579
asg21
g1
((lp580
(lp581
(I960
I40
tp582
aI01
aa(lp583
(I998
I90
tp584
aI01
aa(lp585
(I998
I165
tp586
aI01
aa(lp587
(I979
I240
tp588
aI01
aa(lp589
(I986
I315
tp590
aI01
aatRp591
sa(dp592
g7
(lp593
(F1472835543.6457939
g9
tp594
asg21
g1
((lp595
(lp596
(I960
I40
tp597
aI01
aa(lp598
(I991
I90
tp599
aI01
aa(lp600
(I994
I140
tp601
aI01
aa(lp602
(I972
I215
tp603
aI01
aa(lp604
(I977
I315
tp605
aI01
aatRp606
sa(dp607
g7
(lp608
(F1472835545.1336391
g9
tp609
a(F1472835552.833854
(I749
I265
ttp610
a(F1472835553.415669
(I807
I190
ttp611
asg21
g1
((lp612
(lp613
(I960
I40
tp614
aI01
aa(lp615
(I913
I90
tp616
aI01
aa(lp617
(I869
I140
tp618
aI01
aa(lp619
(I807
I190
tp620
aI00
aa(lp621
(I749
I265
tp622
aI00
aatRp623
sa(dp624
g7
(lp625
(F1472835556.4679019
g9
tp626
asg21
g1
((lp627
(lp628
(I960
I40
tp629
aI01
aa(lp630
(I1008
I90
tp631
aI01
aa(lp632
(I952
I140
tp633
aI01
aa(lp634
(I979
I215
tp635
aI01
aa(lp636
(I991
I290
tp637
aI01
aatRp638
sa(dp639
g7
(lp640
(F1472835560.303241
g9
tp641
a(F1472835561.9181049
(I977
I340
ttp642
asg21
g1
((lp643
(lp644
(I960
I40
tp645
aI01
aa(lp646
(I926
I90
tp647
aI01
aa(lp648
(I945
I165
tp649
aI01
aa(lp650
(I932
I265
tp651
aI01
aa(lp652
(I977
I340
tp653
aI00
aatRp654
sa(dp655
g7
(lp656
(F1472835566.24896
g9
tp657
asg21
g1
((lp658
(lp659
(I960
I40
tp660
aI01
aa(lp661
(I935
I90
tp662
aI01
aa(lp663
(I881
I140
tp664
aI01
aa(lp665
(I875
I215
tp666
aI01
aa(lp667
(I886
I315
tp668
aI01
aatRp669
sa(dp670
g7
(lp671
(F1472835567.9684629
g9
tp672
a(F1472835572.0421309
(I1035
I140
ttp673
a(F1472835572.452852
(I1084
I215
ttp674
a(F1472835572.905417
(I1058
I315
ttp675
asg21
g1
((lp676
(lp677
(I960
I40
tp678
aI01
aa(lp679
(I975
I90
tp680
aI01
aa(lp681
(I1035
I140
tp682
aI00
aa(lp683
(I1084
I215
tp684
aI00
aa(lp685
(I1058
I315
tp686
aI00
aatRp687
sa(dp688
g7
(lp689
(F1472835573.784272
g9
tp690
asg21
g1
((lp691
(lp692
(I960
I40
tp693
aI01
aa(lp694
(I941
I115
tp695
aI01
aa(lp696
(I945
I215
tp697
aI01
aa(lp698
(I987
I290
tp699
aI01
aa(lp700
(I971
I340
tp701
aI01
aatRp702
sa(dp703
g7
(lp704
(F1472835575.38744
g9
tp705
a(F1472835577.0353661
(I979
I315
ttp706
asg21
g1
((lp707
(lp708
(I960
I40
tp709
aI01
aa(lp710
(I987
I90
tp711
aI01
aa(lp712
(I958
I140
tp713
aI01
aa(lp714
(I1010
I215
tp715
aI01
aa(lp716
(I979
I315
tp717
aI00
aatRp718
sa(dp719
g7
(lp720
(F1472835577.84711
g9
tp721
asg21
g1
((lp722
(lp723
(I960
I40
tp724
aI01
aa(lp725
(I952
I115
tp726
aI01
aa(lp727
(I963
I215
tp728
aI01
aa(lp729
(I925
I290
tp730
aI01
aa(lp731
(I971
I340
tp732
aI01
aatRp733
sa(dp734
g7
(lp735
(F1472835582.060926
g9
tp736
a(F1472835584.8237641
(I1017
I115
ttp737
a(F1472835585.3969929
(I1036
I215
ttp738
a(F1472835586.3423221
(I1048
I390
ttp739
a(F1472835586.769886
(I1035
I315
ttp740
asg21
g1
((lp741
(lp742
(I960
I40
tp743
aI01
aa(lp744
(I1017
I115
tp745
aI00
aa(lp746
(I1036
I215
tp747
aI00
aa(lp748
(I1035
I315
tp749
aI00
aa(lp750
(I1048
I390
tp751
aI00
aatRp752
sa(dp753
g7
(lp754
(F1472835587.517462
g9
tp755
a(F1472835589.774493
(I911
I290
ttp756
asg21
g1
((lp757
(lp758
(I960
I40
tp759
aI01
aa(lp760
(I946
I115
tp761
aI01
aa(lp762
(I980
I190
tp763
aI01
aa(lp764
(I976
I240
tp765
aI01
aa(lp766
(I911
I290
tp767
aI00
aatRp768
sa(dp769
g7
(lp770
(F1472835590.5249929
g9
tp771
a(F1472835593.136538
(I896
I90
ttp772
a(F1472835593.5035479
(I874
I165
ttp773
a(F1472835593.906121
(I877
I265
ttp774
a(F1472835594.44081
(I872
I365
ttp775
asg21
g1
((lp776
(lp777
(I960
I40
tp778
aI01
aa(lp779
(I896
I90
tp780
aI00
aa(lp781
(I874
I165
tp782
aI00
aa(lp783
(I877
I265
tp784
aI00
aa(lp785
(I872
I365
tp786
aI00
aatRp787
sa(dp788
g7
(lp789
(F1472835595.566175
g9
tp790
asg21
g1
((lp791
(lp792
(I960
I40
tp793
aI01
aa(lp794
(I913
I115
tp795
aI01
aa(lp796
(I950
I190
tp797
aI01
aa(lp798
(I995
I240
tp799
aI01
aa(lp800
(I957
I290
tp801
aI01
aatRp802
sa(dp803
g7
(lp804
(F1472835614.3037381
g9
tp805
a(F1472835616.553201
(I1054
I365
ttp806
a(F1472835631.78755
(I1011
I115
ttp807
a(F1472835632.2212961
(I1030
I190
ttp808
a(F1472835632.622427
(I1022
I265
ttp809
asg21
g1
((lp810
(lp811
(I960
I40
tp812
aI01
aa(lp813
(I1011
I115
tp814
aI00
aa(lp815
(I1030
I190
tp816
aI00
aa(lp817
(I1022
I265
tp818
aI00
aa(lp819
(I1054
I365
tp820
aI00
aatRp821
sa(dp822
g7
(lp823
(F1472835634.2143509
g9
tp824
asg21
g1
((lp825
(lp826
(I960
I40
tp827
aI01
aa(lp828
(I919
I115
tp829
aI01
aa(lp830
(I923
I215
tp831
aI01
aa(lp832
(I916
I315
tp833
aI01
aa(lp834
(I945
I390
tp835
aI01
aatRp836
sa(dp837
g7
(lp838
(F1472835636.3634579
g9
tp839
a(F1472835638.356066
(I937
I365
ttp840
asg21
g1
((lp841
(lp842
(I960
I40
tp843
aI01
aa(lp844
(I924
I90
tp845
aI01
aa(lp846
(I905
I165
tp847
aI01
aa(lp848
(I906
I265
tp849
aI01
aa(lp850
(I937
I365
tp851
aI00
aatRp852
sa(dp853
g7
(lp854
(F1472835639.2303319
g9
tp855
a(F1472835654.8657761
(I927
I90
ttp856
a(F1472835655.3625219
(I894
I165
ttp857
a(F1472835655.805088
(I887
I240
ttp858
a(F1472835656.256593
(I860
I290
ttp859
asg21
g1
((lp860
(lp861
(I960
I40
tp862
aI01
aa(lp863
(I927
I90
tp864
aI00
aa(lp865
(I894
I165
tp866
aI00
aa(lp867
(I887
I240
tp868
aI00
aa(lp869
(I860
I290
tp870
aI00
aatRp871
sa(dp872
g7
(lp873
(F1472835657.257838
g9
tp874
a(F1472835660.1277709
(I903
I115
ttp875
a(F1472835660.5588
(I886
I215
ttp876
a(F1472835661.0124481
(I877
I315
ttp877
a(F1472835661.6604359
(I882
I390
ttp878
asg21
g1
((lp879
(lp880
(I960
I40
tp881
aI01
aa(lp882
(I903
I115
tp883
aI00
aa(lp884
(I886
I215
tp885
aI00
aa(lp886
(I877
I315
tp887
aI00
aa(lp888
(I882
I390
tp889
aI00
aatRp890
sa(dp891
g7
(lp892
(F1472835662.450701
g9
tp893
a(F1472835663.7839141
(I1045
I140
ttp894
a(F1472835664.1968181
(I1026
I190
ttp895
a(F1472835664.5888269
(I1038
I240
ttp896
asg21
g1
((lp897
(lp898
(I960
I40
tp899
aI01
aa(lp900
(I972
I90
tp901
aI01
aa(lp902
(I1045
I140
tp903
aI00
aa(lp904
(I1026
I190
tp905
aI00
aa(lp906
(I1038
I240
tp907
aI00
aatRp908
sa(dp909
g7
(lp910
(F1472835665.375828
g9
tp911
asg21
g1
((lp912
(lp913
(I960
I40
tp914
aI01
aa(lp915
(I930
I115
tp916
aI01
aa(lp917
(I937
I190
tp918
aI01
aa(lp919
(I906
I265
tp920
aI01
aa(lp921
(I907
I365
tp922
aI01
aatRp923
sa(dp924
g7
(lp925
(F1472835669.6420479
g9
tp926
a(F1472835671.173357
(I1018
I115
ttp927
a(F1472835671.609093
(I1015
I215
ttp928
a(F1472835672.014035
(I983
I315
ttp929
a(F1472835672.3958969
(I977
I415
ttp930
asg21
g1
((lp931
(lp932
(I960
I40
tp933
aI01
aa(lp934
(I1018
I115
tp935
aI00
aa(lp936
(I1015
I215
tp937
aI00
aa(lp938
(I983
I315
tp939
aI00
aa(lp940
(I977
I415
tp941
aI00
aatRp942
sa(dp943
g7
(lp944
(F1472835673.148627
g9
tp945
a(F1472835674.511657
(I1029
I90
ttp946
a(F1472835675.034873
(I1034
I140
ttp947
a(F1472835675.40711
(I1023
I190
ttp948
a(F1472835675.8299589
(I1069
I240
ttp949
asg21
g1
((lp950
(lp951
(I960
I40
tp952
aI01
aa(lp953
(I1029
I90
tp954
aI00
aa(lp955
(I1034
I140
tp956
aI00
aa(lp957
(I1023
I190
tp958
aI00
aa(lp959
(I1069
I240
tp960
aI00
aatRp961
sa(dp962
g7
(lp963
(F1472835676.6413729
g9
tp964
a(F1472835677.982563
(I1038
I190
ttp965
a(F1472835680.0770619
(I990
I265
ttp966
a(F1472835680.558172
(I998
I365
ttp967
asg21
g1
((lp968
(lp969
(I960
I40
tp970
aI01
aa(lp971
(I988
I115
tp972
aI01
aa(lp973
(I1038
I190
tp974
aI00
aa(lp975
(I990
I265
tp976
aI00
aa(lp977
(I998
I365
tp978
aI00
aatRp979
sa(dp980
g7
(lp981
(F1472835681.4195859
g9
tp982
a(F1472835687.398267
(I970
I265
ttp983
a(F1472835688.0041361
(I953
I365
ttp984
asg21
g1
((lp985
(lp986
(I960
I40
tp987
aI01
aa(lp988
(I979
I90
tp989
aI01
aa(lp990
(I939
I165
tp991
aI01
aa(lp992
(I970
I265
tp993
aI00
aa(lp994
(I953
I365
tp995
aI00
aatRp996
sa(dp997
g7
(lp998
(F1472835688.8795531
g9
tp999
asg21
g1
((lp1000
(lp1001
(I960
I40
tp1002
aI01
aa(lp1003
(I946
I115
tp1004
aI01
aa(lp1005
(I944
I190
tp1006
aI01
aa(lp1007
(I982
I240
tp1008
aI01
aa(lp1009
(I954
I290
tp1010
aI01
aatRp1011
sa(dp1012
g7
(lp1013
(F1472835690.5489681
g9
tp1014
a(F1472835700.253814
(I884
I415
ttp1015
a(F1472835700.7782459
(I898
I315
ttp1016
a(F1472835703.341037
(I919
I215
ttp1017
asg21
g1
((lp1018
(lp1019
(I960
I40
tp1020
aI01
aa(lp1021
(I939
I115
tp1022
aI01
aa(lp1023
(I919
I215
tp1024
aI00
aa(lp1025
(I898
I315
tp1026
aI00
aa(lp1027
(I884
I415
tp1028
aI00
aatRp1029
sa(dp1030
g7
(lp1031
(F1472835704.4787879
g9
tp1032
asg21
g1
((lp1033
(lp1034
(I960
I40
tp1035
aI01
aa(lp1036
(I974
I115
tp1037
aI01
aa(lp1038
(I939
I190
tp1039
aI01
aa(lp1040
(I945
I265
tp1041
aI01
aa(lp1042
(I957
I365
tp1043
aI01
aatRp1044
sa(dp1045
g7
(lp1046
(F1472835706.8181281
g9
tp1047
a(F1472835709.0357959
(I1021
I90
ttp1048
a(F1472835709.4368141
(I1082
I165
ttp1049
a(F1472835709.776895
(I1046
I240
ttp1050
a(F1472835710.1265049
(I1065
I315
ttp1051
asg21
g1
((lp1052
(lp1053
(I960
I40
tp1054
aI01
aa(lp1055
(I1021
I90
tp1056
aI00
aa(lp1057
(I1082
I165
tp1058
aI00
aa(lp1059
(I1046
I240
tp1060
aI00
aa(lp1061
(I1065
I315
tp1062
aI00
aatRp1063
sa(dp1064
g7
(lp1065
(F1472835710.8674431
g9
tp1066
a(F1472835712.9730661
(I886
I190
ttp1067
a(F1472835713.3320949
(I858
I240
ttp1068
a(F1472835713.7247
(I804
I290
ttp1069
asg21
g1
((lp1070
(lp1071
(I960
I40
tp1072
aI01
aa(lp1073
(I933
I115
tp1074
aI01
aa(lp1075
(I886
I190
tp1076
aI00
aa(lp1077
(I858
I240
tp1078
aI00
aa(lp1079
(I804
I290
tp1080
aI00
aatRp1081
sa(dp1082
g7
(lp1083
(F1472835714.431766
g9
tp1084
a(F1472835720.5975449
(I899
I115
ttp1085
a(F1472835721.0622711
(I879
I190
ttp1086
a(F1472835721.4022629
(I904
I265
ttp1087
a(F1472835721.855628
(I915
I365
ttp1088
asg21
g1
((lp1089
(lp1090
(I960
I40
tp1091
aI01
aa(lp1092
(I899
I115
tp1093
aI00
aa(lp1094
(I879
I190
tp1095
aI00
aa(lp1096
(I904
I265
tp1097
aI00
aa(lp1098
(I915
I365
tp1099
aI00
aatRp1100
sa(dp1101
g7
(lp1102
(F1472835722.769439
g9
tp1103
a(F1472835725.006223
(I843
I215
ttp1104
a(F1472835725.4927199
(I822
I315
ttp1105
asg21
g1
((lp1106
(lp1107
(I960
I40
tp1108
aI01
aa(lp1109
(I918
I90
tp1110
aI01
aa(lp1111
(I895
I140
tp1112
aI01
aa(lp1113
(I843
I215
tp1114
aI00
aa(lp1115
(I822
I315
tp1116
aI00
aatRp1117
sa(dp1118
g7
(lp1119
(F1472835726.583113
g9
tp1120
a(F1472835730.7124159
(I914
I115
ttp1121
a(F1472835734.2505901
(I897
I190
ttp1122
a(F1472835734.5510931
(I863
I265
ttp1123
a(F1472835734.9112999
(I843
I340
ttp1124
asg21
g1
((lp1125
(lp1126
(I960
I40
tp1127
aI01
aa(lp1128
(I914
I115
tp1129
aI00
aa(lp1130
(I897
I190
tp1131
aI00
aa(lp1132
(I863
I265
tp1133
aI00
aa(lp1134
(I843
I340
tp1135
aI00
aatRp1136
sa(dp1137
g7
(lp1138
(F1472835735.6603191
g9
tp1139
a(F1472835739.268657
(I836
I240
ttp1140
a(F1472835739.781872
(I820
I315
ttp1141
asg21
g1
((lp1142
(lp1143
(I960
I40
tp1144
aI01
aa(lp1145
(I920
I115
tp1146
aI01
aa(lp1147
(I905
I190
tp1148
aI01
aa(lp1149
(I836
I240
tp1150
aI00
aa(lp1151
(I820
I315
tp1152
aI00
aatRp1153
saaa(lp1154
S'exp_50_7_3_space'
p1155
a(lp1156
(dp1157
g7
(lp1158
(F1472835758.217344
g9
tp1159
asg21
g1
((lp1160
(lp1161
(I960
I40
tp1162
aI01
aa(lp1163
(I953
I115
tp1164
aI01
aa(lp1165
(I936
I190
tp1166
aI01
aa(lp1167
(I972
I265
tp1168
aI01
aa(lp1169
(I970
I365
tp1170
aI01
aa(lp1171
(I1009
I440
tp1172
aI01
aa(lp1173
(I1019
I515
tp1174
aI01
aatRp1175
sa(dp1176
g7
(lp1177
(F1472835765.165818
g9
tp1178
a(F1472835769.148396
(I1021
I115
ttp1179
a(F1472835769.478092
(I1033
I215
ttp1180
a(F1472835771.0102279
(I1045
I315
ttp1181
a(F1472835771.5143139
(I1039
I390
ttp1182
a(F1472835771.8358669
(I1023
I465
ttp1183
a(F1472835772.246978
(I1010
I565
ttp1184
asg21
g1
((lp1185
(lp1186
(I960
I40
tp1187
aI01
aa(lp1188
(I1021
I115
tp1189
aI00
aa(lp1190
(I1033
I215
tp1191
aI00
aa(lp1192
(I1045
I315
tp1193
aI00
aa(lp1194
(I1039
I390
tp1195
aI00
aa(lp1196
(I1023
I465
tp1197
aI00
aa(lp1198
(I1010
I565
tp1199
aI00
aatRp1200
sa(dp1201
g7
(lp1202
(F1472835772.9022779
g9
tp1203
a(F1472835774.6134629
(I893
I315
ttp1204
a(F1472835774.9847529
(I903
I390
ttp1205
a(F1472835775.3174851
(I944
I465
ttp1206
a(F1472835775.748522
(I951
I565
ttp1207
a(F1472835783.005079
(I929
I215
ttp1208
a(F1472835783.477299
(I925
I115
ttp1209
a(F1472835785.3906131
(I925
I115
ttp1210
asg21
g1
((lp1211
(lp1212
(I960
I40
tp1213
aI01
aa(lp1214
(I925
I115
tp1215
aI01
aa(lp1216
(I929
I215
tp1217
aI00
aa(lp1218
(I893
I315
tp1219
aI00
aa(lp1220
(I903
I390
tp1221
aI00
aa(lp1222
(I944
I465
tp1223
aI00
aa(lp1224
(I951
I565
tp1225
aI00
aatRp1226
sa(dp1227
g7
(lp1228
(F1472835787.2668109
g9
tp1229
asg21
g1
((lp1230
(lp1231
(I960
I40
tp1232
aI01
aa(lp1233
(I974
I90
tp1234
aI01
aa(lp1235
(I935
I165
tp1236
aI01
aa(lp1237
(I922
I265
tp1238
aI01
aa(lp1239
(I928
I365
tp1240
aI01
aa(lp1241
(I927
I440
tp1242
aI01
aa(lp1243
(I934
I515
tp1244
aI01
aatRp1245
sa(dp1246
g7
(lp1247
(F1472835792.9235809
g9
tp1248
a(F1472835799.9475789
(I940
I415
ttp1249
a(F1472835800.855531
(I940
I415
ttp1250
a(F1472835809.7501111
(I940
I415
ttp1251
a(F1472835810.895499
(I940
I415
ttp1252
a(F1472835812.5731919
(I925
I490
ttp1253
a(F1472835813.676749
(I925
I490
ttp1254
asg21
g1
((lp1255
(lp1256
(I960
I40
tp1257
aI01
aa(lp1258
(I934
I115
tp1259
aI01
aa(lp1260
(I923
I215
tp1261
aI01
aa(lp1262
(I918
I315
tp1263
aI01
aa(lp1264
(I940
I415
tp1265
aI01
aa(lp1266
(I925
I490
tp1267
aI01
aa(lp1268
(I925
I540
tp1269
aI01
aatRp1270
sa(dp1271
g7
(lp1272
(F1472835818.2062659
g9
tp1273
asg21
g1
((lp1274
(lp1275
(I960
I40
tp1276
aI01
aa(lp1277
(I975
I115
tp1278
aI01
aa(lp1279
(I994
I190
tp1280
aI01
aa(lp1281
(I994
I240
tp1282
aI01
aa(lp1283
(I995
I290
tp1284
aI01
aa(lp1285
(I999
I365
tp1286
aI01
aa(lp1287
(I983
I465
tp1288
aI01
aatRp1289
sa(dp1290
g7
(lp1291
(F1472835821.156811
g9
tp1292
a(F1472835823.108278
(I868
I240
ttp1293
a(F1472835823.467952
(I856
I315
ttp1294
a(F1472835823.8483889
(I863
I415
ttp1295
a(F1472835824.2377739
(I837
I515
ttp1296
asg21
g1
((lp1297
(lp1298
(I960
I40
tp1299
aI01
aa(lp1300
(I925
I90
tp1301
aI01
aa(lp1302
(I916
I165
tp1303
aI01
aa(lp1304
(I868
I240
tp1305
aI00
aa(lp1306
(I856
I315
tp1307
aI00
aa(lp1308
(I863
I415
tp1309
aI00
aa(lp1310
(I837
I515
tp1311
aI00
aatRp1312
sa(dp1313
g7
(lp1314
(F1472835824.7754691
g9
tp1315
a(F1472835866.755286
(I874
I565
ttp1316
asg21
g1
((lp1317
(lp1318
(I960
I40
tp1319
aI01
aa(lp1320
(I937
I115
tp1321
aI01
aa(lp1322
(I929
I215
tp1323
aI01
aa(lp1324
(I943
I315
tp1325
aI01
aa(lp1326
(I914
I390
tp1327
aI01
aa(lp1328
(I894
I465
tp1329
aI01
aa(lp1330
(I874
I565
tp1331
aI00
aatRp1332
sa(dp1333
g7
(lp1334
(F1472835867.6385031
g9
tp1335
a(F1472835869.4812131
(I905
I415
ttp1336
a(F1472835875.3299799
(I910
I490
ttp1337
a(F1472835875.987525
(I920
I565
ttp1338
a(F1472835881.187881
(I933
I315
ttp1339
a(F1472835881.7528279
(I924
I215
ttp1340
a(F1472835885.637166
(I916
I115
ttp1341
asg21
g1
((lp1342
(lp1343
(I960
I40
tp1344
aI01
aa(lp1345
(I916
I115
tp1346
aI00
aa(lp1347
(I924
I215
tp1348
aI00
aa(lp1349
(I933
I315
tp1350
aI00
aa(lp1351
(I905
I415
tp1352
aI00
aa(lp1353
(I910
I490
tp1354
aI00
aa(lp1355
(I920
I565
tp1356
aI00
aatRp1357
sa(dp1358
g7
(lp1359
(F1472835886.867346
g9
tp1360
a(F1472835888.4501209
(I1069
I165
ttp1361
a(F1472835889.5976069
(I1071
I265
ttp1362
a(F1472835890.5591481
(I1074
I365
ttp1363
a(F1472835891.2946601
(I1074
I465
ttp1364
a(F1472835891.8944719
(I1072
I565
ttp1365
asg21
g1
((lp1366
(lp1367
(I960
I40
tp1368
aI01
aa(lp1369
(I1021
I90
tp1370
aI01
aa(lp1371
(I1069
I165
tp1372
aI00
aa(lp1373
(I1071
I265
tp1374
aI00
aa(lp1375
(I1074
I365
tp1376
aI00
aa(lp1377
(I1074
I465
tp1378
aI00
aa(lp1379
(I1072
I565
tp1380
aI00
aatRp1381
sa(dp1382
g7
(lp1383
(F1472835892.642966
g9
tp1384
a(F1472835904.907244
(I900
I315
ttp1385
a(F1472835905.3293829
(I906
I390
ttp1386
a(F1472835905.6709111
(I887
I465
ttp1387
a(F1472835906.050482
(I872
I540
ttp1388
asg21
g1
((lp1389
(lp1390
(I960
I40
tp1391
aI01
aa(lp1392
(I933
I115
tp1393
aI01
aa(lp1394
(I916
I215
tp1395
aI01
aa(lp1396
(I900
I315
tp1397
aI00
aa(lp1398
(I906
I390
tp1399
aI00
aa(lp1400
(I887
I465
tp1401
aI00
aa(lp1402
(I872
I540
tp1403
aI00
aatRp1404
sa(dp1405
g7
(lp1406
(F1472835907.2139151
g9
tp1407
a(F1472835908.918658
(I885
I90
ttp1408
a(F1472835909.2911999
(I885
I165
ttp1409
a(F1472835910.505254
(I914
I265
ttp1410
a(F1472835910.8739419
(I895
I365
ttp1411
a(F1472835911.2847281
(I874
I465
ttp1412
a(F1472835911.8688159
(I917
I540
ttp1413
asg21
g1
((lp1414
(lp1415
(I960
I40
tp1416
aI01
aa(lp1417
(I885
I90
tp1418
aI00
aa(lp1419
(I885
I165
tp1420
aI00
aa(lp1421
(I914
I265
tp1422
aI00
aa(lp1423
(I895
I365
tp1424
aI00
aa(lp1425
(I874
I465
tp1426
aI00
aa(lp1427
(I917
I540
tp1428
aI00
aatRp1429
sa(dp1430
g7
(lp1431
(F1472835912.98385
g9
tp1432
a(F1472835915.542727
(I909
I190
ttp1433
a(F1472835916.5047851
(I870
I240
ttp1434
a(F1472835916.8977561
(I862
I290
ttp1435
a(F1472835917.411721
(I873
I340
ttp1436
asg21
g1
((lp1437
(lp1438
(I960
I40
tp1439
aI01
aa(lp1440
(I954
I90
tp1441
aI01
aa(lp1442
(I975
I140
tp1443
aI01
aa(lp1444
(I909
I190
tp1445
aI00
aa(lp1446
(I870
I240
tp1447
aI00
aa(lp1448
(I862
I290
tp1449
aI00
aa(lp1450
(I873
I340
tp1451
aI00
aatRp1452
sa(dp1453
g7
(lp1454
(F1472835918.345212
g9
tp1455
a(F1472835920.197263
(I822
I415
ttp1456
a(F1472835920.652987
(I818
I515
ttp1457
a(F1472835926.032171
(I871
I165
ttp1458
a(F1472835926.4264131
(I886
I265
ttp1459
a(F1472835926.7895689
(I875
I340
ttp1460
asg21
g1
((lp1461
(lp1462
(I960
I40
tp1463
aI01
aa(lp1464
(I931
I90
tp1465
aI01
aa(lp1466
(I871
I165
tp1467
aI00
aa(lp1468
(I886
I265
tp1469
aI00
aa(lp1470
(I875
I340
tp1471
aI00
aa(lp1472
(I822
I415
tp1473
aI00
aa(lp1474
(I818
I515
tp1475
aI00
aatRp1476
sa(dp1477
g7
(lp1478
(F1472835927.5299239
g9
tp1479
a(F1472835930.24581
(I885
I365
ttp1480
a(F1472835930.696172
(I859
I440
ttp1481
asg21
g1
((lp1482
(lp1483
(I960
I40
tp1484
aI01
aa(lp1485
(I986
I90
tp1486
aI01
aa(lp1487
(I1001
I165
tp1488
aI01
aa(lp1489
(I957
I240
tp1490
aI01
aa(lp1491
(I931
I290
tp1492
aI01
aa(lp1493
(I885
I365
tp1494
aI00
aa(lp1495
(I859
I440
tp1496
aI00
aatRp1497
sa(dp1498
g7
(lp1499
(F1472835931.1645861
g9
tp1500
asg21
g1
((lp1501
(lp1502
(I960
I40
tp1503
aI01
aa(lp1504
(I981
I90
tp1505
aI01
aa(lp1506
(I968
I165
tp1507
aI01
aa(lp1508
(I954
I265
tp1509
aI01
aa(lp1510
(I957
I340
tp1511
aI01
aa(lp1512
(I985
I390
tp1513
aI01
aa(lp1514
(I973
I465
tp1515
aI01
aatRp1516
sa(dp1517
g7
(lp1518
(F1472835934.1774831
g9
tp1519
a(F1472835938.2660141
(I1046
I265
ttp1520
a(F1472835938.6376989
(I1043
I365
ttp1521
a(F1472835939.0296509
(I1034
I440
ttp1522
a(F1472835939.461009
(I1021
I490
ttp1523
a(F1472835945.3279209
(I1022
I190
ttp1524
a(F1472835948.458226
(I999
I115
ttp1525
asg21
g1
((lp1526
(lp1527
(I960
I40
tp1528
aI01
aa(lp1529
(I999
I115
tp1530
aI00
aa(lp1531
(I1022
I190
tp1532
aI00
aa(lp1533
(I1046
I265
tp1534
aI00
aa(lp1535
(I1043
I365
tp1536
aI00
aa(lp1537
(I1034
I440
tp1538
aI00
aa(lp1539
(I1021
I490
tp1540
aI00
aatRp1541
sa(dp1542
g7
(lp1543
(F1472835949.025526
g9
tp1544
a(F1472835954.110616
(I1079
I240
ttp1545
a(F1472835954.652957
(I1058
I315
ttp1546
a(F1472835955.3067329
(I1072
I390
ttp1547
a(F1472835955.7900369
(I1082
I465
ttp1548
asg21
g1
((lp1549
(lp1550
(I960
I40
tp1551
aI01
aa(lp1552
(I986
I115
tp1553
aI01
aa(lp1554
(I1015
I190
tp1555
aI01
aa(lp1556
(I1079
I240
tp1557
aI00
aa(lp1558
(I1058
I315
tp1559
aI00
aa(lp1560
(I1072
I390
tp1561
aI00
aa(lp1562
(I1082
I465
tp1563
aI00
aatRp1564
sa(dp1565
g7
(lp1566
(F1472835956.4973741
g9
tp1567
asg21
g1
((lp1568
(lp1569
(I960
I40
tp1570
aI01
aa(lp1571
(I981
I115
tp1572
aI01
aa(lp1573
(I977
I190
tp1574
aI01
aa(lp1575
(I941
I240
tp1576
aI01
aa(lp1577
(I961
I290
tp1578
aI01
aa(lp1579
(I921
I365
tp1580
aI01
aa(lp1581
(I895
I440
tp1582
aI01
aatRp1583
sa(dp1584
g7
(lp1585
(F1472835963.9150259
g9
tp1586
asg21
g1
((lp1587
(lp1588
(I960
I40
tp1589
aI01
aa(lp1590
(I991
I90
tp1591
aI01
aa(lp1592
(I947
I165
tp1593
aI01
aa(lp1594
(I950
I240
tp1595
aI01
aa(lp1596
(I974
I315
tp1597
aI01
aa(lp1598
(I1001
I390
tp1599
aI01
aa(lp1600
(I1042
I440
tp1601
aI01
aatRp1602
sa(dp1603
g7
(lp1604
(F1472835970.4885731
g9
tp1605
a(F1472835972.5658209
(I893
I140
ttp1606
a(F1472835972.9465699
(I918
I215
ttp1607
a(F1472835973.4817231
(I894
I290
ttp1608
a(F1472835973.8216441
(I883
I365
ttp1609
a(F1472835974.4615951
(I907
I440
ttp1610
asg21
g1
((lp1611
(lp1612
(I960
I40
tp1613
aI01
aa(lp1614
(I959
I90
tp1615
aI01
aa(lp1616
(I893
I140
tp1617
aI00
aa(lp1618
(I918
I215
tp1619
aI00
aa(lp1620
(I894
I290
tp1621
aI00
aa(lp1622
(I883
I365
tp1623
aI00
aa(lp1624
(I907
I440
tp1625
aI00
aatRp1626
sa(dp1627
g7
(lp1628
(F1472835975.873311
g9
tp1629
a(F1472835978.353236
(I954
I490
ttp1630
asg21
g1
((lp1631
(lp1632
(I960
I40
tp1633
aI01
aa(lp1634
(I994
I90
tp1635
aI01
aa(lp1636
(I970
I165
tp1637
aI01
aa(lp1638
(I962
I265
tp1639
aI01
aa(lp1640
(I998
I340
tp1641
aI01
aa(lp1642
(I993
I415
tp1643
aI01
aa(lp1644
(I954
I490
tp1645
aI00
aatRp1646
sa(dp1647
g7
(lp1648
(F1472835980.3854339
g9
tp1649
asg21
g1
((lp1650
(lp1651
(I960
I40
tp1652
aI01
aa(lp1653
(I918
I90
tp1654
aI01
aa(lp1655
(I922
I165
tp1656
aI01
aa(lp1657
(I953
I240
tp1658
aI01
aa(lp1659
(I973
I290
tp1660
aI01
aa(lp1661
(I956
I365
tp1662
aI01
aa(lp1663
(I978
I465
tp1664
aI01
aatRp1665
sa(dp1666
g7
(lp1667
(F1472835985.624634
g9
tp1668
a(F1472835987.0890081
(I975
I215
ttp1669
a(F1472835987.4420581
(I972
I290
ttp1670
a(F1472835987.771806
(I997
I365
ttp1671
a(F1472835988.1411459
(I991
I465
ttp1672
a(F1472835990.5153179
(I986
I565
ttp1673
asg21
g1
((lp1674
(lp1675
(I960
I40
tp1676
aI01
aa(lp1677
(I946
I115
tp1678
aI01
aa(lp1679
(I975
I215
tp1680
aI00
aa(lp1681
(I972
I290
tp1682
aI00
aa(lp1683
(I997
I365
tp1684
aI00
aa(lp1685
(I991
I465
tp1686
aI00
aa(lp1687
(I986
I565
tp1688
aI00
aatRp1689
sa(dp1690
g7
(lp1691
(F1472835991.244509
g9
tp1692
asg21
g1
((lp1693
(lp1694
(I960
I40
tp1695
aI01
aa(lp1696
(I929
I90
tp1697
aI01
aa(lp1698
(I909
I140
tp1699
aI01
aa(lp1700
(I935
I190
tp1701
aI01
aa(lp1702
(I990
I240
tp1703
aI01
aa(lp1704
(I926
I290
tp1705
aI01
aa(lp1706
(I947
I340
tp1707
aI01
aatRp1708
sa(dp1709
g7
(lp1710
(F1472835995.4714711
g9
tp1711
a(F1472836000.2250271
(I1024
I165
ttp1712
a(F1472836000.658385
(I1041
I240
ttp1713
a(F1472836001.0286479
(I1072
I290
ttp1714
a(F1472836001.3819599
(I1105
I365
ttp1715
a(F1472836001.8431649
(I1093
I440
ttp1716
asg21
g1
((lp1717
(lp1718
(I960
I40
tp1719
aI01
aa(lp1720
(I973
I90
tp1721
aI01
aa(lp1722
(I1024
I165
tp1723
aI00
aa(lp1724
(I1041
I240
tp1725
aI00
aa(lp1726
(I1072
I290
tp1727
aI00
aa(lp1728
(I1105
I365
tp1729
aI00
aa(lp1730
(I1093
I440
tp1731
aI00
aatRp1732
sa(dp1733
g7
(lp1734
(F1472836002.4417429
g9
tp1735
a(F1472836007.131995
(I905
I565
ttp1736
a(F1472836008.294008
(I905
I565
ttp1737
asg21
g1
((lp1738
(lp1739
(I960
I40
tp1740
aI01
aa(lp1741
(I949
I115
tp1742
aI01
aa(lp1743
(I937
I215
tp1744
aI01
aa(lp1745
(I932
I315
tp1746
aI01
aa(lp1747
(I952
I415
tp1748
aI01
aa(lp1749
(I941
I490
tp1750
aI01
aa(lp1751
(I905
I565
tp1752
aI01
aatRp1753
sa(dp1754
g7
(lp1755
(F1472836011.8737271
g9
tp1756
a(F1472836023.357259
(I1041
I240
ttp1757
a(F1472836023.838552
(I1063
I315
ttp1758
a(F1472836024.2018239
(I1059
I390
ttp1759
a(F1472836024.6458449
(I1098
I465
ttp1760
asg21
g1
((lp1761
(lp1762
(I960
I40
tp1763
aI01
aa(lp1764
(I1000
I115
tp1765
aI01
aa(lp1766
(I972
I190
tp1767
aI01
aa(lp1768
(I1041
I240
tp1769
aI00
aa(lp1770
(I1063
I315
tp1771
aI00
aa(lp1772
(I1059
I390
tp1773
aI00
aa(lp1774
(I1098
I465
tp1775
aI00
aatRp1776
sa(dp1777
g7
(lp1778
(F1472836025.291923
g9
tp1779
asg21
g1
((lp1780
(lp1781
(I960
I40
tp1782
aI01
aa(lp1783
(I942
I90
tp1784
aI01
aa(lp1785
(I947
I165
tp1786
aI01
aa(lp1787
(I933
I240
tp1788
aI01
aa(lp1789
(I953
I315
tp1790
aI01
aa(lp1791
(I940
I415
tp1792
aI01
aa(lp1793
(I949
I490
tp1794
aI01
aatRp1795
sa(dp1796
g7
(lp1797
(F1472836028.960572
g9
tp1798
a(F1472836030.788867
(I1038
I140
ttp1799
a(F1472836031.0996709
(I1054
I215
ttp1800
a(F1472836031.460979
(I1068
I290
ttp1801
a(F1472836031.861578
(I1077
I340
ttp1802
a(F1472836032.282238
(I1083
I415
ttp1803
asg21
g1
((lp1804
(lp1805
(I960
I40
tp1806
aI01
aa(lp1807
(I966
I90
tp1808
aI01
aa(lp1809
(I1038
I140
tp1810
aI00
aa(lp1811
(I1054
I215
tp1812
aI00
aa(lp1813
(I1068
I290
tp1814
aI00
aa(lp1815
(I1077
I340
tp1816
aI00
aa(lp1817
(I1083
I415
tp1818
aI00
aatRp1819
sa(dp1820
g7
(lp1821
(F1472836032.806977
g9
tp1822
a(F1472836035.1549959
(I942
I265
ttp1823
a(F1472836036.5782559
(I959
I340
ttp1824
a(F1472836036.9915471
(I996
I415
ttp1825
a(F1472836038.1226649
(I996
I415
ttp1826
a(F1472836040.2462771
(I959
I340
ttp1827
a(F1472836041.0571289
(I942
I265
ttp1828
asg21
g1
((lp1829
(lp1830
(I960
I40
tp1831
aI01
aa(lp1832
(I893
I90
tp1833
aI01
aa(lp1834
(I923
I140
tp1835
aI01
aa(lp1836
(I903
I190
tp1837
aI01
aa(lp1838
(I942
I265
tp1839
aI01
aa(lp1840
(I959
I340
tp1841
aI01
aa(lp1842
(I996
I415
tp1843
aI01
aatRp1844
sa(dp1845
g7
(lp1846
(F1472836041.5232949
g9
tp1847
asg21
g1
((lp1848
(lp1849
(I960
I40
tp1850
aI01
aa(lp1851
(I929
I115
tp1852
aI01
aa(lp1853
(I923
I190
tp1854
aI01
aa(lp1855
(I968
I240
tp1856
aI01
aa(lp1857
(I981
I315
tp1858
aI01
aa(lp1859
(I986
I390
tp1860
aI01
aa(lp1861
(I1008
I465
tp1862
aI01
aatRp1863
sa(dp1864
g7
(lp1865
(F1472836044.108052
g9
tp1866
asg21
g1
((lp1867
(lp1868
(I960
I40
tp1869
aI01
aa(lp1870
(I911
I90
tp1871
aI01
aa(lp1872
(I899
I165
tp1873
aI01
aa(lp1874
(I910
I240
tp1875
aI01
aa(lp1876
(I912
I290
tp1877
aI01
aa(lp1878
(I891
I365
tp1879
aI01
aa(lp1880
(I905
I440
tp1881
aI01
aatRp1882
sa(dp1883
g7
(lp1884
(F1472836049.7721181
g9
tp1885
a(F1472836064.15467
(I948
I315
ttp1886
a(F1472836064.5882649
(I937
I390
ttp1887
a(F1472836065.0220881
(I923
I440
ttp1888
a(F1472836065.466188
(I939
I515
ttp1889
asg21
g1
((lp1890
(lp1891
(I960
I40
tp1892
aI01
aa(lp1893
(I954
I115
tp1894
aI01
aa(lp1895
(I974
I215
tp1896
aI01
aa(lp1897
(I948
I315
tp1898
aI00
aa(lp1899
(I937
I390
tp1900
aI00
aa(lp1901
(I923
I440
tp1902
aI00
aa(lp1903
(I939
I515
tp1904
aI00
aatRp1905
sa(dp1906
g7
(lp1907
(F1472836065.9735639
g9
tp1908
asg21
g1
((lp1909
(lp1910
(I960
I40
tp1911
aI01
aa(lp1912
(I956
I90
tp1913
aI01
aa(lp1914
(I963
I140
tp1915
aI01
aa(lp1916
(I1012
I190
tp1917
aI01
aa(lp1918
(I971
I240
tp1919
aI01
aa(lp1920
(I1020
I290
tp1921
aI01
aa(lp1922
(I1029
I365
tp1923
aI01
aatRp1924
sa(dp1925
g7
(lp1926
(F1472836068.565191
g9
tp1927
asg21
g1
((lp1928
(lp1929
(I960
I40
tp1930
aI01
aa(lp1931
(I993
I90
tp1932
aI01
aa(lp1933
(I1012
I140
tp1934
aI01
aa(lp1935
(I995
I190
tp1936
aI01
aa(lp1937
(I975
I265
tp1938
aI01
aa(lp1939
(I970
I340
tp1940
aI01
aa(lp1941
(I959
I390
tp1942
aI01
aatRp1943
sa(dp1944
g7
(lp1945
(F1472836072.1510701
g9
tp1946
asg21
g1
((lp1947
(lp1948
(I960
I40
tp1949
aI01
aa(lp1950
(I954
I90
tp1951
aI01
aa(lp1952
(I993
I165
tp1953
aI01
aa(lp1954
(I958
I240
tp1955
aI01
aa(lp1956
(I991
I290
tp1957
aI01
aa(lp1958
(I991
I340
tp1959
aI01
aa(lp1960
(I970
I415
tp1961
aI01
aatRp1962
sa(dp1963
g7
(lp1964
(F1472836076.6238949
g9
tp1965
a(F1472836078.606266
(I976
I440
ttp1966
a(F1472836079.106833
(I975
I490
ttp1967
asg21
g1
((lp1968
(lp1969
(I960
I40
tp1970
aI01
aa(lp1971
(I929
I115
tp1972
aI01
aa(lp1973
(I924
I215
tp1974
aI01
aa(lp1975
(I905
I315
tp1976
aI01
aa(lp1977
(I919
I390
tp1978
aI01
aa(lp1979
(I976
I440
tp1980
aI00
aa(lp1981
(I975
I490
tp1982
aI00
aatRp1983
sa(dp1984
g7
(lp1985
(F1472836091.627461
g9
tp1986
a(F1472836094.9091439
(I973
I465
ttp1987
a(F1472836095.372474
(I988
I540
ttp1988
asg21
g1
((lp1989
(lp1990
(I960
I40
tp1991
aI01
aa(lp1992
(I937
I115
tp1993
aI01
aa(lp1994
(I962
I215
tp1995
aI01
aa(lp1996
(I991
I290
tp1997
aI01
aa(lp1998
(I1001
I365
tp1999
aI01
aa(lp2000
(I973
I465
tp2001
aI00
aa(lp2002
(I988
I540
tp2003
aI00
aatRp2004
sa(dp2005
g7
(lp2006
(F1472836097.0910881
g9
tp2007
asg21
g1
((lp2008
(lp2009
(I960
I40
tp2010
aI01
aa(lp2011
(I974
I90
tp2012
aI01
aa(lp2013
(I964
I165
tp2014
aI01
aa(lp2015
(I980
I240
tp2016
aI01
aa(lp2017
(I911
I290
tp2018
aI01
aa(lp2019
(I911
I340
tp2020
aI01
aa(lp2021
(I946
I390
tp2022
aI01
aatRp2023
sa(dp2024
g7
(lp2025
(F1472836108.6529629
g9
tp2026
a(F1472836110.9915919
(I897
I240
ttp2027
a(F1472836111.3619511
(I919
I315
ttp2028
a(F1472836111.74196
(I916
I390
ttp2029
asg21
g1
((lp2030
(lp2031
(I960
I40
tp2032
aI01
aa(lp2033
(I1023
I90
tp2034
aI01
aa(lp2035
(I990
I140
tp2036
aI01
aa(lp2037
(I967
I190
tp2038
aI01
aa(lp2039
(I897
I240
tp2040
aI00
aa(lp2041
(I919
I315
tp2042
aI00
aa(lp2043
(I916
I390
tp2044
aI00
aatRp2045
sa(dp2046
g7
(lp2047
(F1472836112.9943991
g9
tp2048
a(F1472836115.0565751
(I846
I340
ttp2049
a(F1472836115.4684041
(I792
I390
ttp2050
asg21
g1
((lp2051
(lp2052
(I960
I40
tp2053
aI01
aa(lp2054
(I973
I90
tp2055
aI01
aa(lp2056
(I901
I140
tp2057
aI01
aa(lp2058
(I876
I190
tp2059
aI01
aa(lp2060
(I893
I265
tp2061
aI01
aa(lp2062
(I846
I340
tp2063
aI00
aa(lp2064
(I792
I390
tp2065
aI00
aatRp2066
sa(dp2067
g7
(lp2068
(F1472836115.983201
g9
tp2069
a(F1472836117.3260739
(I863
I490
ttp2070
asg21
g1
((lp2071
(lp2072
(I960
I40
tp2073
aI01
aa(lp2074
(I922
I90
tp2075
aI01
aa(lp2076
(I942
I165
tp2077
aI01
aa(lp2078
(I949
I240
tp2079
aI01
aa(lp2080
(I925
I315
tp2081
aI01
aa(lp2082
(I897
I415
tp2083
aI01
aa(lp2084
(I863
I490
tp2085
aI00
aatRp2086
sa(dp2087
g7
(lp2088
(F1472836118.502043
g9
tp2089
a(F1472836126.3597071
(I1086
I240
ttp2090
a(F1472836126.7413089
(I1063
I290
ttp2091
a(F1472836127.145292
(I1020
I365
ttp2092
a(F1472836127.5266521
(I1030
I440
ttp2093
asg21
g1
((lp2094
(lp2095
(I960
I40
tp2096
aI01
aa(lp2097
(I1017
I115
tp2098
aI01
aa(lp2099
(I1033
I190
tp2100
aI01
aa(lp2101
(I1086
I240
tp2102
aI00
aa(lp2103
(I1063
I290
tp2104
aI00
aa(lp2105
(I1020
I365
tp2106
aI00
aa(lp2107
(I1030
I440
tp2108
aI00
aatRp2109
sa(dp2110
g7
(lp2111
(F1472836128.4007699
g9
tp2112
a(F1472836131.0275819
(I905
I115
ttp2113
a(F1472836131.694423
(I930
I215
ttp2114
a(F1472836132.065788
(I942
I315
ttp2115
a(F1472836132.3956571
(I941
I415
ttp2116
a(F1472836132.757189
(I961
I490
ttp2117
a(F1472836133.1278069
(I954
I540
ttp2118
asg21
g1
((lp2119
(lp2120
(I960
I40
tp2121
aI01
aa(lp2122
(I905
I115
tp2123
aI00
aa(lp2124
(I930
I215
tp2125
aI00
aa(lp2126
(I942
I315
tp2127
aI00
aa(lp2128
(I941
I415
tp2129
aI00
aa(lp2130
(I961
I490
tp2131
aI00
aa(lp2132
(I954
I540
tp2133
aI00
aatRp2134
sa(dp2135
g7
(lp2136
(F1472836133.9363439
g9
tp2137
asg21
g1
((lp2138
(lp2139
(I960
I40
tp2140
aI01
aa(lp2141
(I989
I115
tp2142
aI01
aa(lp2143
(I993
I190
tp2144
aI01
aa(lp2145
(I1027
I240
tp2146
aI01
aa(lp2147
(I997
I315
tp2148
aI01
aa(lp2149
(I1004
I415
tp2150
aI01
aa(lp2151
(I1025
I490
tp2152
aI01
aatRp2153
sa(dp2154
g7
(lp2155
(F1472836135.932529
g9
tp2156
a(F1472836136.911675
(I1061
I165
ttp2157
a(F1472836137.4144361
(I1089
I265
ttp2158
a(F1472836137.7652791
(I1104
I340
ttp2159
a(F1472836138.0998411
(I1073
I415
ttp2160
a(F1472836138.501729
(I1073
I415
ttp2161
a(F1472836139.189477
(I1073
I415
ttp2162
a(F1472836139.6535039
(I1096
I490
ttp2163
asg21
g1
((lp2164
(lp2165
(I960
I40
tp2166
aI01
aa(lp2167
(I1015
I90
tp2168
aI01
aa(lp2169
(I1061
I165
tp2170
aI00
aa(lp2171
(I1089
I265
tp2172
aI00
aa(lp2173
(I1104
I340
tp2174
aI00
aa(lp2175
(I1073
I415
tp2176
aI00
aa(lp2177
(I1096
I490
tp2178
aI00
aatRp2179
sa(dp2180
g7
(lp2181
(F1472836140.22188
g9
tp2182
a(F1472836142.905628
(I912
I140
ttp2183
a(F1472836143.326443
(I889
I190
ttp2184
a(F1472836143.6683061
(I938
I240
ttp2185
a(F1472836144.0111811
(I946
I290
ttp2186
a(F1472836144.3733931
(I964
I340
ttp2187
asg21
g1
((lp2188
(lp2189
(I960
I40
tp2190
aI01
aa(lp2191
(I979
I90
tp2192
aI01
aa(lp2193
(I912
I140
tp2194
aI00
aa(lp2195
(I889
I190
tp2196
aI00
aa(lp2197
(I938
I240
tp2198
aI00
aa(lp2199
(I946
I290
tp2200
aI00
aa(lp2201
(I964
I340
tp2202
aI00
aatRp2203
sa(dp2204
g7
(lp2205
(F1472836144.9175799
g9
tp2206
asg21
g1
((lp2207
(lp2208
(I960
I40
tp2209
aI01
aa(lp2210
(I988
I115
tp2211
aI01
aa(lp2212
(I998
I215
tp2213
aI01
aa(lp2214
(I977
I315
tp2215
aI01
aa(lp2216
(I990
I415
tp2217
aI01
aa(lp2218
(I1000
I515
tp2219
aI01
aa(lp2220
(I1005
I590
tp2221
aI01
aatRp2222
sa(dp2223
g7
(lp2224
(F1472836148.6458459
g9
tp2225
asg21
g1
((lp2226
(lp2227
(I960
I40
tp2228
aI01
aa(lp2229
(I973
I115
tp2230
aI01
aa(lp2231
(I1000
I215
tp2232
aI01
aa(lp2233
(I993
I315
tp2234
aI01
aa(lp2235
(I968
I390
tp2236
aI01
aa(lp2237
(I980
I465
tp2238
aI01
aa(lp2239
(I967
I540
tp2240
aI01
aatRp2241
saaa(lp2242
S'exp_multi_30_space'
p2243
a(lp2244
(dp2245
g7
(lp2246
(F1472836155.8103769
g9
tp2247
a(F1472836171.283128
(I926
I315
ttp2248
asg21
g1
((lp2249
(lp2250
(I837
I40
tp2251
aI01
aa(lp2252
(I988
I40
tp2253
aI01
aa(lp2254
(I945
I115
tp2255
aI01
aa(lp2256
(I1007
I115
tp2257
aI01
aa(lp2258
(I960
I215
tp2259
aI01
aa(lp2260
(I926
I315
tp2261
aI00
aatRp2262
sa(dp2263
g7
(lp2264
(F1472836173.33441
g9
tp2265
a(F1472836174.6371469
(I979
I390
ttp2266
a(F1472836175.942122
(I913
I315
ttp2267
asg21
g1
((lp2268
(lp2269
(I1056
I40
tp2270
aI01
aa(lp2271
(I838
I65
tp2272
aI01
aa(lp2273
(I879
I140
tp2274
aI01
aa(lp2275
(I869
I215
tp2276
aI01
aa(lp2277
(I913
I315
tp2278
aI00
aa(lp2279
(I979
I390
tp2280
aI00
aatRp2281
sa(dp2282
g7
(lp2283
(F1472836178.339493
g9
tp2284
a(F1472836179.9779339
(I1067
I415
ttp2285
asg21
g1
((lp2286
(lp2287
(I984
I40
tp2288
aI01
aa(lp2289
(I930
I90
tp2290
aI01
aa(lp2291
(I1006
I115
tp2292
aI01
aa(lp2293
(I1019
I215
tp2294
aI01
aa(lp2295
(I1036
I315
tp2296
aI01
aa(lp2297
(I1067
I415
tp2298
aI00
aatRp2299
sa(dp2300
g7
(lp2301
(F1472836181.7898941
g9
tp2302
a(F1472836183.26756
(I1005
I315
ttp2303
a(F1472836184.380656
(I922
I165
ttp2304
a(F1472836184.8037629
(I861
I165
ttp2305
a(F1472836185.2152009
(I845
I240
ttp2306
a(F1472836185.7269809
(I959
I240
ttp2307
asg21
g1
((lp2308
(lp2309
(I900
I65
tp2310
aI01
aa(lp2311
(I861
I165
tp2312
aI00
aa(lp2313
(I922
I165
tp2314
aI00
aa(lp2315
(I845
I240
tp2316
aI00
aa(lp2317
(I959
I240
tp2318
aI00
aa(lp2319
(I1005
I315
tp2320
aI00
aatRp2321
sa(dp2322
g7
(lp2323
(F1472836186.8204219
g9
tp2324
a(F1472836188.3073831
(I887
I165
ttp2325
a(F1472836189.0857041
(I930
I240
ttp2326
a(F1472836189.5104661
(I852
I265
ttp2327
a(F1472836189.913223
(I854
I365
ttp2328
asg21
g1
((lp2329
(lp2330
(I924
I65
tp2331
aI01
aa(lp2332
(I976
I65
tp2333
aI01
aa(lp2334
(I887
I165
tp2335
aI00
aa(lp2336
(I930
I240
tp2337
aI00
aa(lp2338
(I852
I265
tp2339
aI00
aa(lp2340
(I854
I365
tp2341
aI00
aatRp2342
sa(dp2343
g7
(lp2344
(F1472836190.429441
g9
tp2345
a(F1472836193.1477489
(I909
I365
ttp2346
a(F1472836209.2335651
(I884
I265
ttp2347
asg21
g1
((lp2348
(lp2349
(I853
I65
tp2350
aI01
aa(lp2351
(I924
I65
tp2352
aI01
aa(lp2353
(I999
I65
tp2354
aI01
aa(lp2355
(I863
I165
tp2356
aI01
aa(lp2357
(I884
I265
tp2358
aI00
aa(lp2359
(I909
I365
tp2360
aI00
aatRp2361
sa(dp2362
g7
(lp2363
(F1472836210.225805
g9
tp2364
a(F1472836212.4393809
(I878
I265
ttp2365
asg21
g1
((lp2366
(lp2367
(I859
I65
tp2368
aI01
aa(lp2369
(I936
I65
tp2370
aI01
aa(lp2371
(I1022
I65
tp2372
aI01
aa(lp2373
(I907
I165
tp2374
aI01
aa(lp2375
(I1024
I165
tp2376
aI01
aa(lp2377
(I878
I265
tp2378
aI00
aatRp2379
sa(dp2380
g7
(lp2381
(F1472836213.8884161
g9
tp2382
a(F1472836215.201082
(I930
I315
ttp2383
asg21
g1
((lp2384
(lp2385
(I860
I65
tp2386
aI01
aa(lp2387
(I972
I65
tp2388
aI01
aa(lp2389
(I853
I165
tp2390
aI01
aa(lp2391
(I961
I165
tp2392
aI01
aa(lp2393
(I868
I240
tp2394
aI01
aa(lp2395
(I930
I315
tp2396
aI00
aatRp2397
sa(dp2398
g7
(lp2399
(F1472836216.1125081
g9
tp2400
a(F1472836218.3821199
(I875
I115
ttp2401
a(F1472836218.813113
(I998
I115
ttp2402
a(F1472836219.214591
(I972
I190
ttp2403
a(F1472836219.564765
(I947
I240
ttp2404
a(F1472836219.997427
(I985
I315
ttp2405
asg21
g1
((lp2406
(lp2407
(I936
I40
tp2408
aI01
aa(lp2409
(I875
I115
tp2410
aI00
aa(lp2411
(I998
I115
tp2412
aI00
aa(lp2413
(I972
I190
tp2414
aI00
aa(lp2415
(I947
I240
tp2416
aI00
aa(lp2417
(I985
I315
tp2418
aI00
aatRp2419
sa(dp2420
g7
(lp2421
(F1472836221.0458491
g9
tp2422
a(F1472836222.6730869
(I963
I265
ttp2423
asg21
g1
((lp2424
(lp2425
(I885
I40
tp2426
aI01
aa(lp2427
(I992
I65
tp2428
aI01
aa(lp2429
(I889
I90
tp2430
aI01
aa(lp2431
(I875
I165
tp2432
aI01
aa(lp2433
(I944
I165
tp2434
aI01
aa(lp2435
(I963
I265
tp2436
aI00
aatRp2437
sa(dp2438
g7
(lp2439
(F1472836225.044982
g9
tp2440
asg21
g1
((lp2441
(lp2442
(I1076
I40
tp2443
aI01
aa(lp2444
(I932
I65
tp2445
aI01
aa(lp2446
(I1030
I90
tp2447
aI01
aa(lp2448
(I1039
I140
tp2449
aI01
aa(lp2450
(I925
I165
tp2451
aI01
aa(lp2452
(I1048
I215
tp2453
aI01
aa(lp2454
(I934
I265
tp2455
aI01
aa(lp2456
(I1024
I290
tp2457
aI01
aatRp2458
sa(dp2459
g7
(lp2460
(F1472836233.2418001
g9
tp2461
a(F1472836235.190495
(I924
I240
ttp2462
a(F1472836237.7072251
(I855
I315
ttp2463
a(F1472836238.147409
(I895
I390
ttp2464
a(F1472836238.529161
(I909
I440
ttp2465
asg21
g1
((lp2466
(lp2467
(I875
I65
tp2468
aI01
aa(lp2469
(I1074
I65
tp2470
aI01
aa(lp2471
(I853
I165
tp2472
aI01
aa(lp2473
(I1044
I165
tp2474
aI01
aa(lp2475
(I924
I240
tp2476
aI00
aa(lp2477
(I855
I315
tp2478
aI00
aa(lp2479
(I895
I390
tp2480
aI00
aa(lp2481
(I909
I440
tp2482
aI00
aatRp2483
sa(dp2484
g7
(lp2485
(F1472836239.6219039
g9
tp2486
a(F1472836240.9236369
(I900
I365
ttp2487
a(F1472836241.618665
(I862
I265
ttp2488
asg21
g1
((lp2489
(lp2490
(I1070
I40
tp2491
aI01
aa(lp2492
(I852
I65
tp2493
aI01
aa(lp2494
(I977
I65
tp2495
aI01
aa(lp2496
(I1080
I115
tp2497
aI01
aa(lp2498
(I988
I140
tp2499
aI01
aa(lp2500
(I897
I165
tp2501
aI01
aa(lp2502
(I862
I265
tp2503
aI00
aa(lp2504
(I900
I365
tp2505
aI00
aatRp2506
sa(dp2507
g7
(lp2508
(F1472836243.396683
g9
tp2509
a(F1472836245.422184
(I977
I165
ttp2510
a(F1472836245.853977
(I908
I165
ttp2511
a(F1472836246.428246
(I1044
I240
ttp2512
asg21
g1
((lp2513
(lp2514
(I944
I65
tp2515
aI01
aa(lp2516
(I1052
I65
tp2517
aI01
aa(lp2518
(I908
I165
tp2519
aI00
aa(lp2520
(I977
I165
tp2521
aI00
aa(lp2522
(I897
I240
tp2523
aI01
aa(lp2524
(I1044
I240
tp2525
aI00
aa(lp2526
(I920
I315
tp2527
aI01
aa(lp2528
(I927
I415
tp2529
aI01
aatRp2530
sa(dp2531
g7
(lp2532
(F1472836247.8690219
g9
tp2533
a(F1472836251.3745091
(I888
I140
ttp2534
a(F1472836252.1296451
(I936
I215
ttp2535
a(F1472836252.6318071
(I1023
I265
ttp2536
a(F1472836253.311167
(I893
I315
ttp2537
asg21
g1
((lp2538
(lp2539
(I942
I65
tp2540
aI01
aa(lp2541
(I994
I65
tp2542
aI01
aa(lp2543
(I1068
I65
tp2544
aI01
aa(lp2545
(I888
I140
tp2546
aI00
aa(lp2547
(I1062
I165
tp2548
aI01
aa(lp2549
(I936
I215
tp2550
aI00
aa(lp2551
(I1023
I265
tp2552
aI00
aa(lp2553
(I893
I315
tp2554
aI00
aatRp2555
sa(dp2556
g7
(lp2557
(F1472836254.528729
g9
tp2558
a(F1472836256.300669
(I1007
I165
ttp2559
a(F1472836257.4104159
(I895
I165
ttp2560
a(F1472836258.2680809
(I1005
I240
ttp2561
a(F1472836258.751236
(I985
I315
ttp2562
a(F1472836259.12183
(I1047
I315
ttp2563
asg21
g1
((lp2564
(lp2565
(I1079
I40
tp2566
aI01
aa(lp2567
(I847
I65
tp2568
aI01
aa(lp2569
(I969
I65
tp2570
aI01
aa(lp2571
(I895
I165
tp2572
aI00
aa(lp2573
(I1007
I165
tp2574
aI00
aa(lp2575
(I1005
I240
tp2576
aI00
aa(lp2577
(I985
I315
tp2578
aI00
aa(lp2579
(I1047
I315
tp2580
aI00
aatRp2581
sa(dp2582
g7
(lp2583
(F1472836260.0516231
g9
tp2584
a(F1472836261.650404
(I1001
I140
ttp2585
a(F1472836262.081296
(I965
I215
ttp2586
a(F1472836262.4917531
(I994
I315
ttp2587
a(F1472836263.0257189
(I932
I315
ttp2588
a(F1472836263.4303589
(I952
I415
ttp2589
asg21
g1
((lp2590
(lp2591
(I843
I40
tp2592
aI01
aa(lp2593
(I955
I65
tp2594
aI01
aa(lp2595
(I872
I115
tp2596
aI01
aa(lp2597
(I1001
I140
tp2598
aI00
aa(lp2599
(I965
I215
tp2600
aI00
aa(lp2601
(I932
I315
tp2602
aI00
aa(lp2603
(I994
I315
tp2604
aI00
aa(lp2605
(I952
I415
tp2606
aI00
aatRp2607
sa(dp2608
g7
(lp2609
(F1472836264.2948461
g9
tp2610
a(F1472836265.5782759
(I1058
I265
ttp2611
asg21
g1
((lp2612
(lp2613
(I940
I65
tp2614
aI01
aa(lp2615
(I1016
I65
tp2616
aI01
aa(lp2617
(I940
I165
tp2618
aI01
aa(lp2619
(I1018
I165
tp2620
aI01
aa(lp2621
(I949
I240
tp2622
aI01
aa(lp2623
(I1058
I265
tp2624
aI00
aa(lp2625
(I934
I315
tp2626
aI01
aa(lp2627
(I986
I315
tp2628
aI01
aatRp2629
sa(dp2630
g7
(lp2631
(F1472836266.336448
g9
tp2632
a(F1472836268.442239
(I983
I140
ttp2633
a(F1472836269.210753
(I928
I215
ttp2634
a(F1472836269.5912261
(I940
I290
ttp2635
a(F1472836269.9511149
(I960
I340
ttp2636
a(F1472836270.27266
(I917
I390
ttp2637
a(F1472836270.6238611
(I982
I440
ttp2638
asg21
g1
((lp2639
(lp2640
(I902
I65
tp2641
aI01
aa(lp2642
(I1044
I65
tp2643
aI01
aa(lp2644
(I983
I140
tp2645
aI00
aa(lp2646
(I928
I215
tp2647
aI00
aa(lp2648
(I940
I290
tp2649
aI00
aa(lp2650
(I960
I340
tp2651
aI00
aa(lp2652
(I917
I390
tp2653
aI00
aa(lp2654
(I982
I440
tp2655
aI00
aatRp2656
sa(dp2657
g7
(lp2658
(F1472836271.1521289
g9
tp2659
a(F1472836272.2844591
(I947
I315
ttp2660
a(F1472836273.011102
(I947
I415
ttp2661
a(F1472836273.354641
(I895
I490
ttp2662
a(F1472836273.716583
(I903
I540
ttp2663
asg21
g1
((lp2664
(lp2665
(I892
I40
tp2666
aI01
aa(lp2667
(I1037
I40
tp2668
aI01
aa(lp2669
(I906
I115
tp2670
aI01
aa(lp2671
(I909
I215
tp2672
aI01
aa(lp2673
(I947
I315
tp2674
aI00
aa(lp2675
(I947
I415
tp2676
aI00
aa(lp2677
(I895
I490
tp2678
aI00
aa(lp2679
(I903
I540
tp2680
aI00
aatRp2681
sa(dp2682
g7
(lp2683
(F1472836274.309689
g9
tp2684
a(F1472836276.525471
(I1013
I115
ttp2685
a(F1472836277.1666479
(I982
I290
ttp2686
a(F1472836279.3453159
(I937
I365
ttp2687
a(F1472836279.7673099
(I960
I440
ttp2688
a(F1472836280.1737249
(I961
I515
ttp2689
a(F1472836281.3756239
(I886
I490
ttp2690
a(F1472836284.9493051
(I961
I515
ttp2691
a(F1472836294.075247
(I960
I440
ttp2692
a(F1472836296.901001
(I937
I365
ttp2693
asg21
g1
((lp2694
(lp2695
(I955
I40
tp2696
aI01
aa(lp2697
(I1076
I65
tp2698
aI01
aa(lp2699
(I935
I115
tp2700
aI01
aa(lp2701
(I1013
I115
tp2702
aI00
aa(lp2703
(I943
I215
tp2704
aI01
aa(lp2705
(I982
I290
tp2706
aI00
aa(lp2707
(I937
I365
tp2708
aI01
aa(lp2709
(I960
I440
tp2710
aI01
aa(lp2711
(I886
I490
tp2712
aI00
aa(lp2713
(I961
I515
tp2714
aI01
aatRp2715
sa(dp2716
g7
(lp2717
(F1472836304.271786
g9
tp2718
a(F1472836306.1656229
(I927
I140
ttp2719
a(F1472836306.8755059
(I888
I215
ttp2720
a(F1472836307.3615401
(I931
I290
ttp2721
a(F1472836309.2393839
(I898
I365
ttp2722
a(F1472836310.3308589
(I1031
I340
ttp2723
a(F1472836310.807317
(I982
I415
ttp2724
a(F1472836311.350352
(I1016
I490
ttp2725
a(F1472836311.7999439
(I962
I565
ttp2726
asg21
g1
((lp2727
(lp2728
(I874
I65
tp2729
aI01
aa(lp2730
(I1009
I65
tp2731
aI01
aa(lp2732
(I927
I140
tp2733
aI00
aa(lp2734
(I888
I215
tp2735
aI00
aa(lp2736
(I931
I290
tp2737
aI00
aa(lp2738
(I1031
I340
tp2739
aI00
aa(lp2740
(I898
I365
tp2741
aI00
aa(lp2742
(I982
I415
tp2743
aI00
aa(lp2744
(I1016
I490
tp2745
aI00
aa(lp2746
(I962
I565
tp2747
aI00
aatRp2748
sa(dp2749
g7
(lp2750
(F1472836312.4468551
g9
tp2751
a(F1472836314.2200429
(I1021
I465
ttp2752
a(F1472836314.5807209
(I946
I465
ttp2753
a(F1472836315.194587
(I1011
I565
ttp2754
a(F1472836315.7383261
(I1001
I665
ttp2755
asg21
g1
((lp2756
(lp2757
(I982
I65
tp2758
aI01
aa(lp2759
(I1049
I65
tp2760
aI01
aa(lp2761
(I981
I140
tp2762
aI01
aa(lp2763
(I980
I215
tp2764
aI01
aa(lp2765
(I979
I290
tp2766
aI01
aa(lp2767
(I972
I365
tp2768
aI01
aa(lp2769
(I946
I465
tp2770
aI00
aa(lp2771
(I1021
I465
tp2772
aI00
aa(lp2773
(I1011
I565
tp2774
aI00
aa(lp2775
(I1001
I665
tp2776
aI00
aatRp2777
sa(dp2778
g7
(lp2779
(F1472836316.8325751
g9
tp2780
a(F1472836318.309386
(I948
I165
ttp2781
a(F1472836318.7014019
(I946
I240
ttp2782
a(F1472836319.184927
(I875
I315
ttp2783
a(F1472836319.62726
(I965
I290
ttp2784
a(F1472836320.0616369
(I1061
I340
ttp2785
a(F1472836320.4508851
(I966
I365
ttp2786
a(F1472836320.8615689
(I1003
I440
ttp2787
a(F1472836321.2929289
(I940
I490
ttp2788
asg21
g1
((lp2789
(lp2790
(I851
I65
tp2791
aI01
aa(lp2792
(I983
I65
tp2793
aI01
aa(lp2794
(I948
I165
tp2795
aI00
aa(lp2796
(I946
I240
tp2797
aI00
aa(lp2798
(I965
I290
tp2799
aI00
aa(lp2800
(I875
I315
tp2801
aI00
aa(lp2802
(I1061
I340
tp2803
aI00
aa(lp2804
(I966
I365
tp2805
aI00
aa(lp2806
(I1003
I440
tp2807
aI00
aa(lp2808
(I940
I490
tp2809
aI00
aatRp2810
sa(dp2811
g7
(lp2812
(F1472836322.2592609
g9
tp2813
a(F1472836323.512614
(I959
I140
ttp2814
a(F1472836324.3671081
(I939
I215
ttp2815
a(F1472836324.933569
(I1026
I215
ttp2816
a(F1472836325.3341
(I1016
I315
ttp2817
a(F1472836325.744859
(I988
I390
ttp2818
a(F1472836326.1533
(I956
I465
ttp2819
a(F1472836326.6565859
(I918
I565
ttp2820
a(F1472836327.0693729
(I995
I565
ttp2821
a(F1472836327.5346251
(I996
I665
ttp2822
asg21
g1
((lp2823
(lp2824
(I1006
I65
tp2825
aI01
aa(lp2826
(I959
I140
tp2827
aI00
aa(lp2828
(I939
I215
tp2829
aI00
aa(lp2830
(I1026
I215
tp2831
aI00
aa(lp2832
(I1016
I315
tp2833
aI00
aa(lp2834
(I988
I390
tp2835
aI00
aa(lp2836
(I956
I465
tp2837
aI00
aa(lp2838
(I918
I565
tp2839
aI00
aa(lp2840
(I995
I565
tp2841
aI00
aa(lp2842
(I996
I665
tp2843
aI00
aatRp2844
sa(dp2845
g7
(lp2846
(F1472836328.5279951
g9
tp2847
a(F1472836329.690239
(I1059
I365
ttp2848
a(F1472836330.76752
(I1020
I265
ttp2849
asg21
g1
((lp2850
(lp2851
(I866
I65
tp2852
aI01
aa(lp2853
(I925
I65
tp2854
aI01
aa(lp2855
(I976
I65
tp2856
aI01
aa(lp2857
(I1028
I65
tp2858
aI01
aa(lp2859
(I903
I165
tp2860
aI01
aa(lp2861
(I989
I165
tp2862
aI01
aa(lp2863
(I918
I265
tp2864
aI01
aa(lp2865
(I1020
I265
tp2866
aI00
aa(lp2867
(I925
I340
tp2868
aI01
aa(lp2869
(I1059
I365
tp2870
aI00
aatRp2871
sa(dp2872
g7
(lp2873
(F1472836331.333611
g9
tp2874
a(F1472836332.7299731
(I871
I165
ttp2875
a(F1472836345.101455
(I1068
I165
ttp2876
a(F1472836347.458427
(I1043
I240
ttp2877
a(F1472836347.889626
(I1059
I315
ttp2878
a(F1472836348.3414979
(I995
I315
ttp2879
a(F1472836348.7422571
(I1047
I415
ttp2880
asg21
g1
((lp2881
(lp2882
(I992
I40
tp2883
aI01
aa(lp2884
(I916
I65
tp2885
aI01
aa(lp2886
(I1047
I90
tp2887
aI01
aa(lp2888
(I960
I140
tp2889
aI01
aa(lp2890
(I871
I165
tp2891
aI00
aa(lp2892
(I1068
I165
tp2893
aI00
aa(lp2894
(I1043
I240
tp2895
aI00
aa(lp2896
(I995
I315
tp2897
aI00
aa(lp2898
(I1059
I315
tp2899
aI00
aa(lp2900
(I1047
I415
tp2901
aI00
aatRp2902
sa(dp2903
g7
(lp2904
(F1472836349.2843931
g9
tp2905
a(F1472836351.5402851
(I1036
I190
ttp2906
a(F1472836352.0544491
(I1035
I265
ttp2907
asg21
g1
((lp2908
(lp2909
(I940
I40
tp2910
aI01
aa(lp2911
(I837
I65
tp2912
aI01
aa(lp2913
(I1054
I65
tp2914
aI01
aa(lp2915
(I942
I90
tp2916
aI01
aa(lp2917
(I980
I140
tp2918
aI01
aa(lp2919
(I871
I165
tp2920
aI01
aa(lp2921
(I1036
I190
tp2922
aI00
aa(lp2923
(I929
I215
tp2924
aI01
aa(lp2925
(I854
I265
tp2926
aI01
aa(lp2927
(I1035
I265
tp2928
aI00
aatRp2929
sa(dp2930
g7
(lp2931
(F1472836353.721549
g9
tp2932
a(F1472836355.218065
(I1012
I140
ttp2933
a(F1472836355.6294489
(I963
I215
ttp2934
a(F1472836356.0705471
(I1011
I290
ttp2935
a(F1472836356.4349101
(I1003
I365
ttp2936
a(F1472836356.8175659
(I960
I465
ttp2937
a(F1472836357.322207
(I1042
I465
ttp2938
a(F1472836357.7042661
(I1032
I540
ttp2939
asg21
g1
((lp2940
(lp2941
(I868
I65
tp2942
aI01
aa(lp2943
(I937
I65
tp2944
aI01
aa(lp2945
(I1012
I140
tp2946
aI00
aa(lp2947
(I895
I165
tp2948
aI01
aa(lp2949
(I963
I215
tp2950
aI00
aa(lp2951
(I1011
I290
tp2952
aI00
aa(lp2953
(I1003
I365
tp2954
aI00
aa(lp2955
(I960
I465
tp2956
aI00
aa(lp2957
(I1042
I465
tp2958
aI00
aa(lp2959
(I1032
I540
tp2960
aI00
aatRp2961
sa(dp2962
g7
(lp2963
(F1472836358.3139081
g9
tp2964
a(F1472836359.9021809
(I894
I165
ttp2965
a(F1472836360.2976651
(I885
I240
ttp2966
a(F1472836360.6219721
(I878
I315
ttp2967
a(F1472836361.060364
(I956
I315
ttp2968
a(F1472836361.443027
(I907
I390
ttp2969
a(F1472836362.0492189
(I876
I465
ttp2970
a(F1472836362.5112579
(I945
I465
ttp2971
asg21
g1
((lp2972
(lp2973
(I932
I65
tp2974
aI01
aa(lp2975
(I1032
I65
tp2976
aI01
aa(lp2977
(I894
I165
tp2978
aI00
aa(lp2979
(I1069
I165
tp2980
aI01
aa(lp2981
(I885
I240
tp2982
aI00
aa(lp2983
(I878
I315
tp2984
aI00
aa(lp2985
(I956
I315
tp2986
aI00
aa(lp2987
(I907
I390
tp2988
aI00
aa(lp2989
(I876
I465
tp2990
aI00
aa(lp2991
(I945
I465
tp2992
aI00
aatRp2993
saaatRp2994
.